Certificate:
    Data:
        Version: 3 (0x2)
        Serial Number:
            51:7e:2e:33:1c:5c:f4:a4:92:72:cb:44:d0:a4:8b:eb
        Signature Algorithm: sha256WithRSAEncryption
        Issuer: C=AQ, ST=White, L=D3cktown, O=D3ckasaurusRex, CN=*
        Validity
            Not Before: Jul  8 06:02:56 2014 GMT
            Not After : Jul  8 06:02:56 2015 GMT
        Subject: C=AQ, ST=White, L=D3cktown, O=D3ckasaurusRex, CN=*
        Subject Public Key Info:
            Public Key Algorithm: rsaEncryption
            RSA Public Key: (1024 bit)
                Modulus (1024 bit):
                    00:b9:12:ed:36:ae:53:f0:16:5b:4b:70:b6:60:f3:
                    3f:40:02:a8:62:84:69:c8:16:90:a5:72:ec:21:d6:
                    ee:6f:56:62:0f:76:58:8c:fb:5c:16:11:97:24:86:
                    a2:e5:06:db:25:5c:e6:5c:25:09:f9:b2:a4:d7:de:
                    d4:37:51:ee:12:5c:36:86:0d:02:3a:b3:80:03:70:
                    1d:3b:5f:51:ff:40:73:22:0a:ef:22:25:e7:9d:00:
                    61:89:b5:53:da:e9:2f:34:82:bd:d2:58:7d:5d:32:
                    3a:a2:e2:0a:a4:df:f0:88:d3:a4:2f:d7:7e:b5:aa:
                    c9:08:0f:e3:f8:ba:0d:99:bf
                Exponent: 65537 (0x10001)
        X509v3 extensions:
            X509v3 Basic Constraints: 
                CA:FALSE
            Netscape Comment: 
                d3ck certz with retsin
            X509v3 Subject Key Identifier: 
                1B:7B:C4:C7:B4:15:60:40:DF:59:35:50:7D:8A:D0:1E:E3:88:2F:55
            X509v3 Authority Key Identifier: 
                keyid:40:4F:8F:C4:F5:80:67:13:77:16:A0:A9:7C:50:8F:5C:E0:74:BE:7F
                DirName:/C=AQ/ST=White/L=D3cktown/O=D3ckasaurusRex/CN=*
                serial:FC:86:18:01:1E:C9:07:20

    Signature Algorithm: sha256WithRSAEncryption
        42:a6:8f:d7:80:17:c6:a4:3b:29:86:00:2b:0b:c6:95:88:ca:
        d9:e3:fc:dd:43:27:38:8f:4b:a4:92:c5:48:35:87:ab:c1:58:
        46:8a:49:9b:b3:15:ce:75:f9:e0:fc:29:f2:1e:1f:87:26:f1:
        35:4b:0f:01:57:1c:1c:ce:df:86:37:d7:e6:b1:bf:88:6a:9b:
        88:f6:f0:88:5e:19:aa:64:e5:98:c5:bb:65:a1:f1:54:18:11:
        21:f7:bb:e7:b5:2b:02:fa:1f:60:af:74:0c:2d:ea:9a:d2:af:
        21:ac:de:17:83:45:92:13:a3:f6:95:75:02:1a:c5:e7:c8:f5:
        13:b8
-----BEGIN CERTIFICATE-----
MIIDDDCCAnWgAwIBAgIQUX4uMxxc9KSScstE0KSL6zANBgkqhkiG9w0BAQsFADBV
MQswCQYDVQQGEwJBUTEOMAwGA1UECBMFV2hpdGUxETAPBgNVBAcTCEQzY2t0b3du
MRcwFQYDVQQKEw5EM2NrYXNhdXJ1c1JleDEKMAgGA1UEAxQBKjAeFw0xNDA3MDgw
NjAyNTZaFw0xNTA3MDgwNjAyNTZaMFUxCzAJBgNVBAYTAkFRMQ4wDAYDVQQIEwVX
aGl0ZTERMA8GA1UEBxMIRDNja3Rvd24xFzAVBgNVBAoTDkQzY2thc2F1cnVzUmV4
MQowCAYDVQQDFAEqMIGfMA0GCSqGSIb3DQEBAQUAA4GNADCBiQKBgQC5Eu02rlPw
FltLcLZg8z9AAqhihGnIFpClcuwh1u5vVmIPdliM+1wWEZckhqLlBtslXOZcJQn5
sqTX3tQ3Ue4SXDaGDQI6s4ADcB07X1H/QHMiCu8iJeedAGGJtVPa6S80gr3SWH1d
Mjqi4gqk3/CI06Qv1361qskID+P4ug2ZvwIDAQABo4HcMIHZMAkGA1UdEwQCMAAw
JQYJYIZIAYb4QgENBBgWFmQzY2sgY2VydHogd2l0aCByZXRzaW4wHQYDVR0OBBYE
FBt7xMe0FWBA31k1UH2K0B7jiC9VMIGFBgNVHSMEfjB8gBRAT4/E9YBnE3cWoKl8
UI9c4HS+f6FZpFcwVTELMAkGA1UEBhMCQVExDjAMBgNVBAgTBVdoaXRlMREwDwYD
VQQHEwhEM2NrdG93bjEXMBUGA1UEChMORDNja2FzYXVydXNSZXgxCjAIBgNVBAMU
ASqCCQD8hhgBHskHIDANBgkqhkiG9w0BAQsFAAOBgQBCpo/XgBfGpDsphgArC8aV
iMrZ4/zdQyc4j0ukksVINYerwVhGikmbsxXOdfng/CnyHh+HJvE1Sw8BVxwczt+G
N9fmsb+IapuI9vCIXhmqZOWYxbtlofFUGBEh97vntSsC+h9gr3QMLeqa0q8hrN4X
g0WSE6P2lXUCGsXnyPUTuA==
-----END CERTIFICATE-----
