Certificate:
    Data:
        Version: 3 (0x2)
        Serial Number:
            51:7e:2e:33:1c:5c:f4:a4:92:72:cb:44:d0:a4:8b:ea
        Signature Algorithm: sha256WithRSAEncryption
        Issuer: C=AQ, ST=White, L=D3cktown, O=D3ckasaurusRex, CN=*
        Validity
            Not Before: Jul  8 06:02:56 2014 GMT
            Not After : Jul  8 06:02:56 2015 GMT
        Subject: C=AQ, ST=White, L=D3cktown, O=D3ckasaurusRex, CN=*
        Subject Public Key Info:
            Public Key Algorithm: rsaEncryption
            RSA Public Key: (1024 bit)
                Modulus (1024 bit):
                    00:cc:86:de:94:f4:5b:c7:b3:c2:d3:1a:5d:58:6b:
                    4c:a8:a6:6e:19:88:75:41:37:f1:ce:9d:c0:26:c9:
                    62:34:ae:f4:e9:68:f8:5e:78:41:08:c6:b6:b0:90:
                    7d:3d:11:0a:5c:e0:6b:c1:28:6f:b3:6f:d9:71:00:
                    a7:a3:e0:59:19:b1:5f:f8:2a:32:2b:57:29:38:43:
                    de:de:8f:00:af:0e:94:18:53:44:9b:11:37:1d:25:
                    b8:7e:05:3b:f8:41:5a:d2:da:2a:28:b8:84:a6:c5:
                    49:33:39:28:83:84:66:29:f9:ce:ed:71:10:b8:b7:
                    58:de:fc:5a:e1:2b:64:f5:2f
                Exponent: 65537 (0x10001)
        X509v3 extensions:
            X509v3 Basic Constraints: 
                CA:FALSE
            Netscape Comment: 
                d3ck certz with retsin
            X509v3 Subject Key Identifier: 
                89:9B:55:47:B8:9D:8F:8A:B4:CD:90:64:A9:13:79:94:0B:A0:9B:11
            X509v3 Authority Key Identifier: 
                keyid:40:4F:8F:C4:F5:80:67:13:77:16:A0:A9:7C:50:8F:5C:E0:74:BE:7F
                DirName:/C=AQ/ST=White/L=D3cktown/O=D3ckasaurusRex/CN=*
                serial:FC:86:18:01:1E:C9:07:20

    Signature Algorithm: sha256WithRSAEncryption
        ab:c9:30:59:a8:40:b7:9b:6c:c2:e2:e5:8b:2c:27:b6:c4:5a:
        ef:5a:89:6d:d1:7b:44:c0:cd:37:01:d1:c6:23:09:ee:2e:10:
        3d:22:24:00:9c:6a:f0:37:db:d1:76:ac:34:e1:61:75:a1:f7:
        4f:3f:87:5f:dd:8b:bb:d6:80:9e:b4:2b:1d:e4:0d:23:69:c8:
        bf:38:12:e2:59:b7:58:f5:55:f0:be:da:52:a0:6b:2e:32:b1:
        b1:78:06:4a:62:1b:e8:b8:15:d4:40:ce:fb:f9:20:da:8b:bf:
        02:10:72:01:23:88:2d:43:7d:70:c6:35:90:af:c3:d8:d3:3b:
        16:a2
-----BEGIN CERTIFICATE-----
MIIDDDCCAnWgAwIBAgIQUX4uMxxc9KSScstE0KSL6jANBgkqhkiG9w0BAQsFADBV
MQswCQYDVQQGEwJBUTEOMAwGA1UECBMFV2hpdGUxETAPBgNVBAcTCEQzY2t0b3du
MRcwFQYDVQQKEw5EM2NrYXNhdXJ1c1JleDEKMAgGA1UEAxQBKjAeFw0xNDA3MDgw
NjAyNTZaFw0xNTA3MDgwNjAyNTZaMFUxCzAJBgNVBAYTAkFRMQ4wDAYDVQQIEwVX
aGl0ZTERMA8GA1UEBxMIRDNja3Rvd24xFzAVBgNVBAoTDkQzY2thc2F1cnVzUmV4
MQowCAYDVQQDFAEqMIGfMA0GCSqGSIb3DQEBAQUAA4GNADCBiQKBgQDMht6U9FvH
s8LTGl1Ya0yopm4ZiHVBN/HOncAmyWI0rvTpaPheeEEIxrawkH09EQpc4GvBKG+z
b9lxAKej4FkZsV/4KjIrVyk4Q97ejwCvDpQYU0SbETcdJbh+BTv4QVrS2ioouISm
xUkzOSiDhGYp+c7tcRC4t1je/FrhK2T1LwIDAQABo4HcMIHZMAkGA1UdEwQCMAAw
JQYJYIZIAYb4QgENBBgWFmQzY2sgY2VydHogd2l0aCByZXRzaW4wHQYDVR0OBBYE
FImbVUe4nY+KtM2QZKkTeZQLoJsRMIGFBgNVHSMEfjB8gBRAT4/E9YBnE3cWoKl8
UI9c4HS+f6FZpFcwVTELMAkGA1UEBhMCQVExDjAMBgNVBAgTBVdoaXRlMREwDwYD
VQQHEwhEM2NrdG93bjEXMBUGA1UEChMORDNja2FzYXVydXNSZXgxCjAIBgNVBAMU
ASqCCQD8hhgBHskHIDANBgkqhkiG9w0BAQsFAAOBgQCryTBZqEC3m2zC4uWLLCe2
xFrvWolt0XtEwM03AdHGIwnuLhA9IiQAnGrwN9vRdqw04WF1ofdPP4df3Yu71oCe
tCsd5A0jaci/OBLiWbdY9VXwvtpSoGsuMrGxeAZKYhvouBXUQM77+SDai78CEHIB
I4gtQ31wxjWQr8PY0zsWog==
-----END CERTIFICATE-----
