Certificate:
    Data:
        Version: 3 (0x2)
        Serial Number:
            77:22:54:91:86:14:ae:b5:ad:f1:88:e7:6c:35:6c:17
        Signature Algorithm: sha256WithRSAEncryption
        Issuer: C=AQ, ST=White, L=D3cktown, O=D3ckasaurusRex, CN=*
        Validity
            Not Before: Jul  8 05:47:49 2014 GMT
            Not After : Jul  8 05:47:49 2015 GMT
        Subject: C=AQ, ST=White, L=D3cktown, O=D3ckasaurusRex, CN=*
        Subject Public Key Info:
            Public Key Algorithm: rsaEncryption
            RSA Public Key: (1024 bit)
                Modulus (1024 bit):
                    00:c7:36:ee:6f:0e:ee:53:05:31:fe:b3:68:aa:9a:
                    c4:b1:c8:cb:f5:11:dc:27:19:5b:7a:be:9f:8e:a4:
                    56:7f:99:a6:61:cf:cb:90:0b:17:32:e0:0f:37:65:
                    6e:d8:c0:e4:f6:e0:c4:19:f6:27:40:4f:77:b0:25:
                    16:42:d6:58:80:20:5c:e8:f4:16:16:77:97:f8:c6:
                    06:72:27:27:1d:c0:e1:e7:2a:a2:76:65:ee:56:b6:
                    d6:87:0a:35:4d:27:93:57:c7:71:b8:22:2e:2b:60:
                    00:c3:61:24:ed:c3:1a:e5:f0:14:c9:e6:17:51:1f:
                    28:74:7a:5b:60:b2:49:06:35
                Exponent: 65537 (0x10001)
        X509v3 extensions:
            X509v3 Basic Constraints: 
                CA:FALSE
            Netscape Comment: 
                d3ck certz with retsin
            X509v3 Subject Key Identifier: 
                2F:DA:0C:21:89:24:15:97:7F:C6:5C:A0:2C:AB:B3:B5:9D:5C:FB:9C
            X509v3 Authority Key Identifier: 
                keyid:36:2B:DF:4B:B3:80:A0:80:9D:80:C6:9D:A5:1A:8C:F7:2F:39:2B:CC
                DirName:/C=AQ/ST=White/L=D3cktown/O=D3ckasaurusRex/CN=*
                serial:9C:6E:62:83:FD:1B:EE:BE

    Signature Algorithm: sha256WithRSAEncryption
        bc:1c:91:4d:9a:b2:cd:24:6d:08:5c:d6:34:8b:7f:06:3a:98:
        bc:52:63:91:f6:2c:51:44:75:23:8e:45:c8:cd:d5:ff:f7:0e:
        89:9d:59:88:9e:c9:21:18:a9:29:60:7f:97:a0:6d:20:22:be:
        4a:e5:fe:9c:cc:1a:87:4a:95:da:c3:bc:5d:6b:ce:50:1e:4c:
        19:bc:3f:f4:08:7f:16:2f:2b:40:47:2d:5b:b5:3d:27:42:1a:
        72:1d:33:b3:d1:85:34:e7:19:80:59:5f:24:91:aa:4c:2f:13:
        97:56:b4:90:4e:be:e0:7f:ea:62:ea:e1:e5:de:54:61:cc:59:
        07:31
-----BEGIN CERTIFICATE-----
MIIDDDCCAnWgAwIBAgIQdyJUkYYUrrWt8YjnbDVsFzANBgkqhkiG9w0BAQsFADBV
MQswCQYDVQQGEwJBUTEOMAwGA1UECBMFV2hpdGUxETAPBgNVBAcTCEQzY2t0b3du
MRcwFQYDVQQKEw5EM2NrYXNhdXJ1c1JleDEKMAgGA1UEAxQBKjAeFw0xNDA3MDgw
NTQ3NDlaFw0xNTA3MDgwNTQ3NDlaMFUxCzAJBgNVBAYTAkFRMQ4wDAYDVQQIEwVX
aGl0ZTERMA8GA1UEBxMIRDNja3Rvd24xFzAVBgNVBAoTDkQzY2thc2F1cnVzUmV4
MQowCAYDVQQDFAEqMIGfMA0GCSqGSIb3DQEBAQUAA4GNADCBiQKBgQDHNu5vDu5T
BTH+s2iqmsSxyMv1EdwnGVt6vp+OpFZ/maZhz8uQCxcy4A83ZW7YwOT24MQZ9idA
T3ewJRZC1liAIFzo9BYWd5f4xgZyJycdwOHnKqJ2Ze5WttaHCjVNJ5NXx3G4Ii4r
YADDYSTtwxrl8BTJ5hdRHyh0eltgskkGNQIDAQABo4HcMIHZMAkGA1UdEwQCMAAw
JQYJYIZIAYb4QgENBBgWFmQzY2sgY2VydHogd2l0aCByZXRzaW4wHQYDVR0OBBYE
FC/aDCGJJBWXf8ZcoCyrs7WdXPucMIGFBgNVHSMEfjB8gBQ2K99Ls4CggJ2Axp2l
Goz3LzkrzKFZpFcwVTELMAkGA1UEBhMCQVExDjAMBgNVBAgTBVdoaXRlMREwDwYD
VQQHEwhEM2NrdG93bjEXMBUGA1UEChMORDNja2FzYXVydXNSZXgxCjAIBgNVBAMU
ASqCCQCcbmKD/RvuvjANBgkqhkiG9w0BAQsFAAOBgQC8HJFNmrLNJG0IXNY0i38G
Opi8UmOR9ixRRHUjjkXIzdX/9w6JnVmInskhGKkpYH+XoG0gIr5K5f6czBqHSpXa
w7xda85QHkwZvD/0CH8WLytARy1btT0nQhpyHTOz0YU05xmAWV8kkapMLxOXVrSQ
Tr7gf+pi6uHl3lRhzFkHMQ==
-----END CERTIFICATE-----
