Certificate:
    Data:
        Version: 3 (0x2)
        Serial Number:
            77:22:54:91:86:14:ae:b5:ad:f1:88:e7:6c:35:6c:18
        Signature Algorithm: sha256WithRSAEncryption
        Issuer: C=AQ, ST=White, L=D3cktown, O=D3ckasaurusRex, CN=*
        Validity
            Not Before: Jul  8 05:47:50 2014 GMT
            Not After : Jul  8 05:47:50 2015 GMT
        Subject: C=AQ, ST=White, L=D3cktown, O=D3ckasaurusRex, CN=*
        Subject Public Key Info:
            Public Key Algorithm: rsaEncryption
            RSA Public Key: (1024 bit)
                Modulus (1024 bit):
                    00:df:a5:bf:f8:69:6e:ad:98:37:53:c7:ab:b3:9e:
                    d4:6c:18:b0:40:ff:45:71:dc:51:ca:fc:4a:84:b5:
                    22:0c:47:a8:de:74:c3:58:72:4b:0b:61:e0:b0:e0:
                    39:11:67:e7:ae:1b:ea:6b:de:56:e0:95:bf:6e:e4:
                    cd:e9:8f:d7:a6:b1:6a:77:81:01:39:1e:12:32:93:
                    9d:0b:95:2f:7b:bf:1f:b6:70:bd:76:98:1c:46:94:
                    5a:b3:8b:8e:88:86:13:ed:9c:ba:a2:4f:19:99:54:
                    53:d3:2a:a5:24:52:84:0d:7f:91:ad:c5:d0:c7:3d:
                    16:d1:c8:30:72:c1:d2:15:8d
                Exponent: 65537 (0x10001)
        X509v3 extensions:
            X509v3 Basic Constraints: 
                CA:FALSE
            Netscape Comment: 
                d3ck certz with retsin
            X509v3 Subject Key Identifier: 
                39:3E:0E:1D:76:F9:44:76:43:0F:5F:A9:10:F3:E3:63:C0:15:22:EA
            X509v3 Authority Key Identifier: 
                keyid:36:2B:DF:4B:B3:80:A0:80:9D:80:C6:9D:A5:1A:8C:F7:2F:39:2B:CC
                DirName:/C=AQ/ST=White/L=D3cktown/O=D3ckasaurusRex/CN=*
                serial:9C:6E:62:83:FD:1B:EE:BE

    Signature Algorithm: sha256WithRSAEncryption
        7d:58:11:e6:39:1b:3a:2b:9d:b6:eb:d0:de:df:41:fe:76:87:
        88:34:80:2e:3b:61:a6:e9:65:c6:2a:36:49:90:ab:df:ae:11:
        6f:86:80:a2:6e:ba:9d:9b:db:5a:02:73:02:72:43:30:80:62:
        26:f2:f1:d9:13:04:fa:d6:6c:28:28:0a:25:27:31:c1:62:d7:
        e8:e7:7d:fe:de:0b:3f:42:83:46:4a:92:1a:39:bd:38:a3:db:
        25:bc:22:59:7d:64:34:83:8b:66:b2:95:6f:9e:15:f6:d4:1f:
        a2:75:08:91:97:69:44:07:bc:7c:f6:16:93:91:f2:02:bb:29:
        2e:12
-----BEGIN CERTIFICATE-----
MIIDDDCCAnWgAwIBAgIQdyJUkYYUrrWt8YjnbDVsGDANBgkqhkiG9w0BAQsFADBV
MQswCQYDVQQGEwJBUTEOMAwGA1UECBMFV2hpdGUxETAPBgNVBAcTCEQzY2t0b3du
MRcwFQYDVQQKEw5EM2NrYXNhdXJ1c1JleDEKMAgGA1UEAxQBKjAeFw0xNDA3MDgw
NTQ3NTBaFw0xNTA3MDgwNTQ3NTBaMFUxCzAJBgNVBAYTAkFRMQ4wDAYDVQQIEwVX
aGl0ZTERMA8GA1UEBxMIRDNja3Rvd24xFzAVBgNVBAoTDkQzY2thc2F1cnVzUmV4
MQowCAYDVQQDFAEqMIGfMA0GCSqGSIb3DQEBAQUAA4GNADCBiQKBgQDfpb/4aW6t
mDdTx6uzntRsGLBA/0Vx3FHK/EqEtSIMR6jedMNYcksLYeCw4DkRZ+euG+pr3lbg
lb9u5M3pj9emsWp3gQE5HhIyk50LlS97vx+2cL12mBxGlFqzi46IhhPtnLqiTxmZ
VFPTKqUkUoQNf5GtxdDHPRbRyDBywdIVjQIDAQABo4HcMIHZMAkGA1UdEwQCMAAw
JQYJYIZIAYb4QgENBBgWFmQzY2sgY2VydHogd2l0aCByZXRzaW4wHQYDVR0OBBYE
FDk+Dh12+UR2Qw9fqRDz42PAFSLqMIGFBgNVHSMEfjB8gBQ2K99Ls4CggJ2Axp2l
Goz3LzkrzKFZpFcwVTELMAkGA1UEBhMCQVExDjAMBgNVBAgTBVdoaXRlMREwDwYD
VQQHEwhEM2NrdG93bjEXMBUGA1UEChMORDNja2FzYXVydXNSZXgxCjAIBgNVBAMU
ASqCCQCcbmKD/RvuvjANBgkqhkiG9w0BAQsFAAOBgQB9WBHmORs6K52269De30H+
doeINIAuO2Gm6WXGKjZJkKvfrhFvhoCibrqdm9taAnMCckMwgGIm8vHZEwT61mwo
KAolJzHBYtfo533+3gs/QoNGSpIaOb04o9slvCJZfWQ0g4tmspVvnhX21B+idQiR
l2lEB7x89haTkfICuykuEg==
-----END CERTIFICATE-----
