Certificate:
    Data:
        Version: 3 (0x2)
        Serial Number:
            98:b6:e9:71:f2:15:fe:bc:61:21:6c:45:ff:81:50:3f
        Signature Algorithm: sha256WithRSAEncryption
        Issuer: C=AQ, ST=White, L=D3cktown, O=D3ckasaurusRex, CN=*
        Validity
            Not Before: Jul  8 05:50:09 2014 GMT
            Not After : Jul  8 05:50:09 2015 GMT
        Subject: C=AQ, ST=White, L=D3cktown, O=D3ckasaurusRex, CN=*
        Subject Public Key Info:
            Public Key Algorithm: rsaEncryption
            RSA Public Key: (1024 bit)
                Modulus (1024 bit):
                    00:bb:99:7e:17:1e:71:44:06:d2:1f:13:ae:f5:d5:
                    e3:05:8b:01:7c:f8:29:64:0f:75:d5:81:5d:d6:a7:
                    87:db:c4:56:c0:3c:b6:29:34:73:9e:c7:ef:0c:18:
                    e6:1b:a0:d9:40:c3:17:86:a2:81:83:03:bb:3b:f8:
                    18:79:50:01:c6:6f:44:cd:ba:fd:20:6d:76:86:2b:
                    c6:68:ae:94:81:e5:10:02:8c:ca:a2:c7:78:27:d1:
                    17:8e:d9:25:cf:ff:03:0f:bd:43:3e:7a:f9:61:ba:
                    e2:fe:c6:49:1b:18:10:6f:7e:f9:2e:de:d8:d3:7f:
                    49:74:77:ef:99:36:63:cc:77
                Exponent: 65537 (0x10001)
        X509v3 extensions:
            X509v3 Basic Constraints: 
                CA:FALSE
            Netscape Comment: 
                d3ck certz with retsin
            X509v3 Subject Key Identifier: 
                60:6E:CC:86:90:97:DB:05:E6:04:F0:58:12:CE:8A:5E:CB:70:77:8B
            X509v3 Authority Key Identifier: 
                keyid:4A:26:FC:53:B1:6E:25:1D:2A:4D:FA:60:50:15:F7:24:7C:44:64:64
                DirName:/C=AQ/ST=White/L=D3cktown/O=D3ckasaurusRex/CN=*
                serial:DE:0F:C7:02:77:5D:6F:57

    Signature Algorithm: sha256WithRSAEncryption
        45:f1:7a:c7:6c:23:7d:dc:68:e8:a5:08:7a:72:da:89:19:20:
        af:0a:a4:6d:5f:cb:29:10:74:89:f2:fa:f7:d3:7a:61:98:dd:
        ee:88:36:01:11:e3:2c:03:a1:d1:da:27:88:bf:ec:4e:f3:78:
        b1:90:da:49:5c:a4:a4:74:a4:55:9e:39:98:a0:b9:b4:a2:cb:
        5a:eb:85:3e:69:35:24:9d:fe:a6:60:10:1b:35:7d:44:71:24:
        8a:50:fe:2e:64:75:7b:df:ab:29:9e:d6:53:15:60:08:c8:22:
        94:cd:6e:0c:0c:51:ad:5f:ef:db:be:20:00:83:bf:f1:54:15:
        41:2f
-----BEGIN CERTIFICATE-----
MIIDDTCCAnagAwIBAgIRAJi26XHyFf68YSFsRf+BUD8wDQYJKoZIhvcNAQELBQAw
VTELMAkGA1UEBhMCQVExDjAMBgNVBAgTBVdoaXRlMREwDwYDVQQHEwhEM2NrdG93
bjEXMBUGA1UEChMORDNja2FzYXVydXNSZXgxCjAIBgNVBAMUASowHhcNMTQwNzA4
MDU1MDA5WhcNMTUwNzA4MDU1MDA5WjBVMQswCQYDVQQGEwJBUTEOMAwGA1UECBMF
V2hpdGUxETAPBgNVBAcTCEQzY2t0b3duMRcwFQYDVQQKEw5EM2NrYXNhdXJ1c1Jl
eDEKMAgGA1UEAxQBKjCBnzANBgkqhkiG9w0BAQEFAAOBjQAwgYkCgYEAu5l+Fx5x
RAbSHxOu9dXjBYsBfPgpZA911YFd1qeH28RWwDy2KTRznsfvDBjmG6DZQMMXhqKB
gwO7O/gYeVABxm9Ezbr9IG12hivGaK6UgeUQAozKosd4J9EXjtklz/8DD71DPnr5
Ybri/sZJGxgQb375Lt7Y039JdHfvmTZjzHcCAwEAAaOB3DCB2TAJBgNVHRMEAjAA
MCUGCWCGSAGG+EIBDQQYFhZkM2NrIGNlcnR6IHdpdGggcmV0c2luMB0GA1UdDgQW
BBRgbsyGkJfbBeYE8FgSzopey3B3izCBhQYDVR0jBH4wfIAUSib8U7FuJR0qTfpg
UBX3JHxEZGShWaRXMFUxCzAJBgNVBAYTAkFRMQ4wDAYDVQQIEwVXaGl0ZTERMA8G
A1UEBxMIRDNja3Rvd24xFzAVBgNVBAoTDkQzY2thc2F1cnVzUmV4MQowCAYDVQQD
FAEqggkA3g/HAnddb1cwDQYJKoZIhvcNAQELBQADgYEARfF6x2wjfdxo6KUIenLa
iRkgrwqkbV/LKRB0ifL699N6YZjd7og2ARHjLAOh0doniL/sTvN4sZDaSVykpHSk
VZ45mKC5tKLLWuuFPmk1JJ3+pmAQGzV9RHEkilD+LmR1e9+rKZ7WUxVgCMgilM1u
DAxRrV/v274gAIO/8VQVQS8=
-----END CERTIFICATE-----
