Certificate:
    Data:
        Version: 3 (0x2)
        Serial Number:
            98:b6:e9:71:f2:15:fe:bc:61:21:6c:45:ff:81:50:3e
        Signature Algorithm: sha256WithRSAEncryption
        Issuer: C=AQ, ST=White, L=D3cktown, O=D3ckasaurusRex, CN=*
        Validity
            Not Before: Jul  8 05:50:08 2014 GMT
            Not After : Jul  8 05:50:08 2015 GMT
        Subject: C=AQ, ST=White, L=D3cktown, O=D3ckasaurusRex, CN=*
        Subject Public Key Info:
            Public Key Algorithm: rsaEncryption
            RSA Public Key: (1024 bit)
                Modulus (1024 bit):
                    00:b1:e9:5f:24:af:93:07:40:aa:97:9e:bd:d2:0b:
                    50:66:1b:85:37:de:24:5a:3e:c6:be:e7:16:14:6a:
                    56:f8:a8:70:19:30:4b:bd:46:42:cd:72:a0:8d:ab:
                    7f:05:c3:2f:45:28:49:27:62:0b:a2:56:9b:41:59:
                    51:8d:0e:b7:aa:e3:a6:03:e2:e3:05:95:c5:40:f7:
                    cf:d9:74:82:24:b6:c1:b3:2c:b5:0a:1e:ad:d4:25:
                    18:7f:bd:8c:fe:ad:fd:6c:ca:0a:f8:ce:4f:9f:47:
                    7a:96:75:f1:67:dd:2b:75:35:54:47:16:dd:7c:e5:
                    f6:47:da:88:a2:e6:d5:40:cf
                Exponent: 65537 (0x10001)
        X509v3 extensions:
            X509v3 Basic Constraints: 
                CA:FALSE
            Netscape Comment: 
                d3ck certz with retsin
            X509v3 Subject Key Identifier: 
                03:20:61:D5:DA:C1:45:7C:20:13:FC:DC:AB:B7:A4:8E:44:90:E8:64
            X509v3 Authority Key Identifier: 
                keyid:4A:26:FC:53:B1:6E:25:1D:2A:4D:FA:60:50:15:F7:24:7C:44:64:64
                DirName:/C=AQ/ST=White/L=D3cktown/O=D3ckasaurusRex/CN=*
                serial:DE:0F:C7:02:77:5D:6F:57

    Signature Algorithm: sha256WithRSAEncryption
        0c:4e:25:e5:05:f2:72:89:40:6a:69:1b:70:8d:f4:b3:63:f2:
        9f:7a:82:97:5a:72:61:ad:52:bc:5a:a5:17:01:7e:6e:5e:56:
        ff:c5:fd:3a:7e:b3:cb:07:53:1f:d6:ec:13:ac:53:45:90:b6:
        9c:79:78:53:40:ea:86:27:e2:b7:0e:23:c1:44:fd:d3:a1:b2:
        57:85:4b:bc:5e:36:fc:ca:e7:61:ad:6a:d3:7d:b9:18:55:a6:
        86:32:c7:72:f3:34:01:d9:a6:06:08:e2:a8:81:46:58:ba:04:
        c0:d7:d3:f6:ce:40:b7:37:52:d3:65:9d:d6:9e:38:a6:b7:83:
        85:3d
-----BEGIN CERTIFICATE-----
MIIDDTCCAnagAwIBAgIRAJi26XHyFf68YSFsRf+BUD4wDQYJKoZIhvcNAQELBQAw
VTELMAkGA1UEBhMCQVExDjAMBgNVBAgTBVdoaXRlMREwDwYDVQQHEwhEM2NrdG93
bjEXMBUGA1UEChMORDNja2FzYXVydXNSZXgxCjAIBgNVBAMUASowHhcNMTQwNzA4
MDU1MDA4WhcNMTUwNzA4MDU1MDA4WjBVMQswCQYDVQQGEwJBUTEOMAwGA1UECBMF
V2hpdGUxETAPBgNVBAcTCEQzY2t0b3duMRcwFQYDVQQKEw5EM2NrYXNhdXJ1c1Jl
eDEKMAgGA1UEAxQBKjCBnzANBgkqhkiG9w0BAQEFAAOBjQAwgYkCgYEAselfJK+T
B0Cql5690gtQZhuFN94kWj7GvucWFGpW+KhwGTBLvUZCzXKgjat/BcMvRShJJ2IL
olabQVlRjQ63quOmA+LjBZXFQPfP2XSCJLbBsyy1Ch6t1CUYf72M/q39bMoK+M5P
n0d6lnXxZ90rdTVURxbdfOX2R9qIoubVQM8CAwEAAaOB3DCB2TAJBgNVHRMEAjAA
MCUGCWCGSAGG+EIBDQQYFhZkM2NrIGNlcnR6IHdpdGggcmV0c2luMB0GA1UdDgQW
BBQDIGHV2sFFfCAT/Nyrt6SORJDoZDCBhQYDVR0jBH4wfIAUSib8U7FuJR0qTfpg
UBX3JHxEZGShWaRXMFUxCzAJBgNVBAYTAkFRMQ4wDAYDVQQIEwVXaGl0ZTERMA8G
A1UEBxMIRDNja3Rvd24xFzAVBgNVBAoTDkQzY2thc2F1cnVzUmV4MQowCAYDVQQD
FAEqggkA3g/HAnddb1cwDQYJKoZIhvcNAQELBQADgYEADE4l5QXycolAamkbcI30
s2Pyn3qCl1pyYa1SvFqlFwF+bl5W/8X9On6zywdTH9bsE6xTRZC2nHl4U0Dqhifi
tw4jwUT906GyV4VLvF42/MrnYa1q0325GFWmhjLHcvM0AdmmBgjiqIFGWLoEwNfT
9s5AtzdS02Wd1p44preDhT0=
-----END CERTIFICATE-----
