Certificate:
    Data:
        Version: 3 (0x2)
        Serial Number:
            d0:36:58:3c:ad:17:a4:2d:74:d7:0f:a4:af:5d:1c:d9
        Signature Algorithm: sha256WithRSAEncryption
        Issuer: C=AQ, ST=White, L=D3cktown, O=D3ckasaurusRex, CN=*
        Validity
            Not Before: Jul  8 06:01:43 2014 GMT
            Not After : Jul  8 06:01:43 2015 GMT
        Subject: C=AQ, ST=White, L=D3cktown, O=D3ckasaurusRex, CN=*
        Subject Public Key Info:
            Public Key Algorithm: rsaEncryption
            RSA Public Key: (1024 bit)
                Modulus (1024 bit):
                    00:a8:c0:bf:65:f6:5c:fa:13:86:17:b1:ad:2b:e6:
                    1a:26:6b:cb:6f:89:45:79:e1:ed:55:1d:f9:d4:06:
                    7e:c6:67:2b:48:dc:bd:8a:e5:de:13:5a:15:a5:88:
                    b4:6a:3e:10:3d:30:68:b8:eb:1b:a8:72:67:fe:d7:
                    c8:bd:16:5c:cf:35:b1:14:7c:64:a6:ef:25:ad:46:
                    7d:f7:e8:88:bb:c4:db:7c:07:cb:d6:9e:19:20:73:
                    37:5b:5b:46:ea:b9:a4:90:af:33:70:73:99:49:ca:
                    5e:ee:c9:fb:14:8c:8b:d1:d3:b0:ff:ce:aa:64:dd:
                    d8:0a:ae:22:ad:c3:06:da:8b
                Exponent: 65537 (0x10001)
        X509v3 extensions:
            X509v3 Basic Constraints: 
                CA:FALSE
            Netscape Comment: 
                d3ck certz with retsin
            X509v3 Subject Key Identifier: 
                80:E6:73:3E:63:E2:33:CB:4A:F5:35:94:0A:3D:01:5F:2A:9E:60:D8
            X509v3 Authority Key Identifier: 
                keyid:47:3E:C1:60:32:65:3F:EF:AA:49:9B:1E:D3:AF:24:2E:7D:AE:BB:14
                DirName:/C=AQ/ST=White/L=D3cktown/O=D3ckasaurusRex/CN=*
                serial:C7:34:7C:BD:C8:68:E8:F2

    Signature Algorithm: sha256WithRSAEncryption
        95:3d:ba:96:bf:57:f0:c8:2d:d5:79:82:c0:d9:1a:10:c5:22:
        ae:7c:d0:33:f8:3f:bc:b2:24:93:b9:72:77:5b:4d:ea:7c:07:
        97:51:68:58:9a:aa:3b:50:00:73:c7:d3:13:17:16:fc:b1:e1:
        3a:77:db:de:be:36:1f:9b:73:84:49:cc:8b:c9:d1:a1:e2:54:
        d9:be:ec:3c:c5:c2:b2:05:1e:a6:06:74:de:b3:f0:6c:71:91:
        44:39:63:d0:83:85:c9:3c:c9:90:fb:38:75:25:04:7f:21:d1:
        49:01:45:8f:43:02:dd:0b:21:96:af:87:77:bb:b2:e5:92:07:
        1a:87
-----BEGIN CERTIFICATE-----
MIIDDTCCAnagAwIBAgIRANA2WDytF6QtdNcPpK9dHNkwDQYJKoZIhvcNAQELBQAw
VTELMAkGA1UEBhMCQVExDjAMBgNVBAgTBVdoaXRlMREwDwYDVQQHEwhEM2NrdG93
bjEXMBUGA1UEChMORDNja2FzYXVydXNSZXgxCjAIBgNVBAMUASowHhcNMTQwNzA4
MDYwMTQzWhcNMTUwNzA4MDYwMTQzWjBVMQswCQYDVQQGEwJBUTEOMAwGA1UECBMF
V2hpdGUxETAPBgNVBAcTCEQzY2t0b3duMRcwFQYDVQQKEw5EM2NrYXNhdXJ1c1Jl
eDEKMAgGA1UEAxQBKjCBnzANBgkqhkiG9w0BAQEFAAOBjQAwgYkCgYEAqMC/ZfZc
+hOGF7GtK+YaJmvLb4lFeeHtVR351AZ+xmcrSNy9iuXeE1oVpYi0aj4QPTBouOsb
qHJn/tfIvRZczzWxFHxkpu8lrUZ99+iIu8TbfAfL1p4ZIHM3W1tG6rmkkK8zcHOZ
Scpe7sn7FIyL0dOw/86qZN3YCq4ircMG2osCAwEAAaOB3DCB2TAJBgNVHRMEAjAA
MCUGCWCGSAGG+EIBDQQYFhZkM2NrIGNlcnR6IHdpdGggcmV0c2luMB0GA1UdDgQW
BBSA5nM+Y+Izy0r1NZQKPQFfKp5g2DCBhQYDVR0jBH4wfIAURz7BYDJlP++qSZse
068kLn2uuxShWaRXMFUxCzAJBgNVBAYTAkFRMQ4wDAYDVQQIEwVXaGl0ZTERMA8G
A1UEBxMIRDNja3Rvd24xFzAVBgNVBAoTDkQzY2thc2F1cnVzUmV4MQowCAYDVQQD
FAEqggkAxzR8vcho6PIwDQYJKoZIhvcNAQELBQADgYEAlT26lr9X8Mgt1XmCwNka
EMUirnzQM/g/vLIkk7lyd1tN6nwHl1FoWJqqO1AAc8fTExcW/LHhOnfb3r42H5tz
hEnMi8nRoeJU2b7sPMXCsgUepgZ03rPwbHGRRDlj0IOFyTzJkPs4dSUEfyHRSQFF
j0MC3Qshlq+Hd7uy5ZIHGoc=
-----END CERTIFICATE-----
