Certificate:
    Data:
        Version: 3 (0x2)
        Serial Number:
            d0:36:58:3c:ad:17:a4:2d:74:d7:0f:a4:af:5d:1c:da
        Signature Algorithm: sha256WithRSAEncryption
        Issuer: C=AQ, ST=White, L=D3cktown, O=D3ckasaurusRex, CN=*
        Validity
            Not Before: Jul  8 06:01:43 2014 GMT
            Not After : Jul  8 06:01:43 2015 GMT
        Subject: C=AQ, ST=White, L=D3cktown, O=D3ckasaurusRex, CN=*
        Subject Public Key Info:
            Public Key Algorithm: rsaEncryption
            RSA Public Key: (1024 bit)
                Modulus (1024 bit):
                    00:bf:cd:81:8f:e6:e1:da:1f:1f:50:c0:8e:f1:a8:
                    62:f0:15:ad:0e:b7:40:a2:70:99:0a:e2:38:57:b2:
                    04:a9:2d:63:ed:00:e0:4c:a8:e9:fd:bd:ad:a2:67:
                    fd:41:67:d8:e5:8c:60:83:f1:22:c0:c0:00:28:bf:
                    98:c3:e9:08:95:80:43:d7:b1:1b:1a:47:4b:69:86:
                    60:24:e1:3d:d8:55:19:26:49:eb:b8:9d:56:a5:1d:
                    bd:8e:4a:57:46:e7:f5:05:26:12:c3:5b:fc:b5:d5:
                    a8:03:e6:1c:50:10:c9:ce:89:c9:e5:32:93:8a:42:
                    3c:24:9d:15:56:f0:89:6f:f3
                Exponent: 65537 (0x10001)
        X509v3 extensions:
            X509v3 Basic Constraints: 
                CA:FALSE
            Netscape Comment: 
                d3ck certz with retsin
            X509v3 Subject Key Identifier: 
                20:80:5D:FC:2C:97:B5:34:88:98:06:11:B9:95:B2:41:BC:83:75:EE
            X509v3 Authority Key Identifier: 
                keyid:47:3E:C1:60:32:65:3F:EF:AA:49:9B:1E:D3:AF:24:2E:7D:AE:BB:14
                DirName:/C=AQ/ST=White/L=D3cktown/O=D3ckasaurusRex/CN=*
                serial:C7:34:7C:BD:C8:68:E8:F2

    Signature Algorithm: sha256WithRSAEncryption
        9b:7e:e2:03:b7:a5:9e:c5:a9:c8:17:d9:08:93:ea:4f:7c:2f:
        78:6d:ce:7a:2c:10:4f:b0:97:54:a3:d3:da:91:fb:22:9a:d2:
        92:9a:f2:3c:1f:ae:52:48:bc:77:58:4e:e7:a2:18:4d:27:83:
        e5:ee:4a:b3:bf:55:81:16:fe:88:80:86:28:10:cb:d5:93:21:
        65:4f:04:a4:bf:23:de:4b:34:38:ad:42:47:4b:38:4e:ff:ed:
        f9:a5:a9:5d:cd:77:8b:08:8b:81:91:ca:96:62:5d:83:e5:43:
        61:b6:85:17:78:ef:26:06:b6:4d:f0:00:40:08:6c:be:8c:3f:
        e1:3e
-----BEGIN CERTIFICATE-----
MIIDDTCCAnagAwIBAgIRANA2WDytF6QtdNcPpK9dHNowDQYJKoZIhvcNAQELBQAw
VTELMAkGA1UEBhMCQVExDjAMBgNVBAgTBVdoaXRlMREwDwYDVQQHEwhEM2NrdG93
bjEXMBUGA1UEChMORDNja2FzYXVydXNSZXgxCjAIBgNVBAMUASowHhcNMTQwNzA4
MDYwMTQzWhcNMTUwNzA4MDYwMTQzWjBVMQswCQYDVQQGEwJBUTEOMAwGA1UECBMF
V2hpdGUxETAPBgNVBAcTCEQzY2t0b3duMRcwFQYDVQQKEw5EM2NrYXNhdXJ1c1Jl
eDEKMAgGA1UEAxQBKjCBnzANBgkqhkiG9w0BAQEFAAOBjQAwgYkCgYEAv82Bj+bh
2h8fUMCO8ahi8BWtDrdAonCZCuI4V7IEqS1j7QDgTKjp/b2tomf9QWfY5Yxgg/Ei
wMAAKL+Yw+kIlYBD17EbGkdLaYZgJOE92FUZJknruJ1WpR29jkpXRuf1BSYSw1v8
tdWoA+YcUBDJzonJ5TKTikI8JJ0VVvCJb/MCAwEAAaOB3DCB2TAJBgNVHRMEAjAA
MCUGCWCGSAGG+EIBDQQYFhZkM2NrIGNlcnR6IHdpdGggcmV0c2luMB0GA1UdDgQW
BBQggF38LJe1NIiYBhG5lbJBvIN17jCBhQYDVR0jBH4wfIAURz7BYDJlP++qSZse
068kLn2uuxShWaRXMFUxCzAJBgNVBAYTAkFRMQ4wDAYDVQQIEwVXaGl0ZTERMA8G
A1UEBxMIRDNja3Rvd24xFzAVBgNVBAoTDkQzY2thc2F1cnVzUmV4MQowCAYDVQQD
FAEqggkAxzR8vcho6PIwDQYJKoZIhvcNAQELBQADgYEAm37iA7elnsWpyBfZCJPq
T3wveG3OeiwQT7CXVKPT2pH7IprSkpryPB+uUki8d1hO56IYTSeD5e5Ks79VgRb+
iICGKBDL1ZMhZU8EpL8j3ks0OK1CR0s4Tv/t+aWpXc13iwiLgZHKlmJdg+VDYbaF
F3jvJga2TfAAQAhsvow/4T4=
-----END CERTIFICATE-----
