Certificate:
    Data:
        Version: 3 (0x2)
        Serial Number:
            04:8d:fc:14:29:32:0c:7d:88:79:dc:27:d2:c4:36:19
        Signature Algorithm: sha256WithRSAEncryption
        Issuer: C=AQ, CN=bfe0e34758aac4d215d25bf727bf57e5
        Validity
            Not Before: Jul  6 19:22:57 2014 GMT
            Not After : Jul  6 19:22:57 2015 GMT
        Subject: C=AQ, ST=White, L=D3cktown, O=D3ckasaurusRex, CN=*
        Subject Public Key Info:
            Public Key Algorithm: rsaEncryption
            RSA Public Key: (1024 bit)
                Modulus (1024 bit):
                    00:d0:82:d7:e7:11:c8:e0:52:82:de:77:31:84:85:
                    92:d9:dd:26:a9:8c:90:ef:a8:5f:10:30:2d:38:21:
                    6f:df:c8:28:08:8a:9c:78:f9:d5:62:0e:56:09:06:
                    45:1a:70:73:6a:ec:0b:10:31:6a:00:13:3a:53:d2:
                    b7:23:bd:6d:21:0f:18:df:3e:24:b3:b8:26:99:16:
                    00:a2:77:1d:2a:1a:7c:0b:8b:e9:d6:54:5f:74:21:
                    27:a3:22:43:90:6a:7c:c9:b9:d1:b2:c7:d1:f1:5c:
                    3e:b4:a8:b8:10:73:a7:50:5a:34:83:2d:4b:66:2f:
                    4d:44:8c:a4:2c:83:17:b3:ff
                Exponent: 65537 (0x10001)
        X509v3 extensions:
            X509v3 Basic Constraints: 
                CA:FALSE
            Netscape Cert Type: 
                SSL Server
            Netscape Comment: 
                d3ck Server Certificate
            X509v3 Subject Key Identifier: 
                7D:25:18:68:4A:5F:2F:2D:52:E4:B9:34:4F:C9:21:78:81:CB:15:D1
            X509v3 Authority Key Identifier: 
                keyid:18:D6:B7:93:92:B1:5C:02:43:66:F7:54:9F:86:5C:66:95:97:6D:FD
                DirName:/C=AQ/CN=bfe0e34758aac4d215d25bf727bf57e5
                serial:95:FB:A7:1C:B4:CB:81:F1

            X509v3 Extended Key Usage: 
                TLS Web Server Authentication
            X509v3 Key Usage: 
                Digital Signature, Key Encipherment
    Signature Algorithm: sha256WithRSAEncryption
        2d:c6:ab:57:70:9d:7b:5b:e6:d1:19:7a:3d:5b:ad:8a:bc:07:
        37:bd:e3:8a:87:30:fa:89:74:0a:44:02:90:bd:13:b8:8d:71:
        92:96:e0:5f:9c:12:aa:ee:cc:b4:84:0a:04:69:93:5c:79:40:
        8d:bd:54:43:f3:15:f7:9a:3a:6c:82:08:e6:34:2d:ef:86:e6:
        b7:e5:ef:f6:9e:f9:3b:7a:05:16:9a:64:65:61:21:b4:4c:63:
        4a:50:6e:45:bc:a8:81:d7:47:95:8f:30:1f:30:26:19:a0:58:
        cf:76:c1:66:9c:b7:ad:55:e1:65:9a:b4:3c:03:a0:a2:93:0e:
        ed:27
-----BEGIN CERTIFICATE-----
MIIDBzCCAnCgAwIBAgIQBI38FCkyDH2Iedwn0sQ2GTANBgkqhkiG9w0BAQsFADA4
MQswCQYDVQQGEwJBUTEpMCcGA1UEAxMgYmZlMGUzNDc1OGFhYzRkMjE1ZDI1YmY3
MjdiZjU3ZTUwHhcNMTQwNzA2MTkyMjU3WhcNMTUwNzA2MTkyMjU3WjBVMQswCQYD
VQQGEwJBUTEOMAwGA1UECBMFV2hpdGUxETAPBgNVBAcTCEQzY2t0b3duMRcwFQYD
VQQKEw5EM2NrYXNhdXJ1c1JleDEKMAgGA1UEAxQBKjCBnzANBgkqhkiG9w0BAQEF
AAOBjQAwgYkCgYEA0ILX5xHI4FKC3ncxhIWS2d0mqYyQ76hfEDAtOCFv38goCIqc
ePnVYg5WCQZFGnBzauwLEDFqABM6U9K3I71tIQ8Y3z4ks7gmmRYAoncdKhp8C4vp
1lRfdCEnoyJDkGp8ybnRssfR8Vw+tKi4EHOnUFo0gy1LZi9NRIykLIMXs/8CAwEA
AaOB9DCB8TAJBgNVHRMEAjAAMBEGCWCGSAGG+EIBAQQEAwIGQDAmBglghkgBhvhC
AQ0EGRYXZDNjayBTZXJ2ZXIgQ2VydGlmaWNhdGUwHQYDVR0OBBYEFH0lGGhKXy8t
UuS5NE/JIXiByxXRMGgGA1UdIwRhMF+AFBjWt5OSsVwCQ2b3VJ+GXGaVl239oTyk
OjA4MQswCQYDVQQGEwJBUTEpMCcGA1UEAxMgYmZlMGUzNDc1OGFhYzRkMjE1ZDI1
YmY3MjdiZjU3ZTWCCQCV+6cctMuB8TATBgNVHSUEDDAKBggrBgEFBQcDATALBgNV
HQ8EBAMCBaAwDQYJKoZIhvcNAQELBQADgYEALcarV3Cde1vm0Rl6PVutirwHN73j
iocw+ol0CkQCkL0TuI1xkpbgX5wSqu7MtIQKBGmTXHlAjb1UQ/MV95o6bIII5jQt
74bmt+Xv9p75O3oFFppkZWEhtExjSlBuRbyogddHlY8wHzAmGaBYz3bBZpy3rVXh
ZZq0PAOgopMO7Sc=
-----END CERTIFICATE-----
