Certificate:
    Data:
        Version: 3 (0x2)
        Serial Number:
            bd:3a:3b:4a:bb:cb:3f:f5:0f:ba:69:c3:a8:f4:49:3f
        Signature Algorithm: sha256WithRSAEncryption
        Issuer: C=AQ, CN=99f4ffef1990c5c7d485213c3d5ab191
        Validity
            Not Before: Jul  6 20:11:00 2014 GMT
            Not After : Jul  6 20:11:00 2015 GMT
        Subject: C=AQ, ST=White, L=D3cktown, O=D3ckasaurusRex, CN=*
        Subject Public Key Info:
            Public Key Algorithm: rsaEncryption
            RSA Public Key: (1024 bit)
                Modulus (1024 bit):
                    00:d3:f6:15:29:81:a4:e7:cc:be:46:fa:87:1f:b9:
                    58:9a:7a:03:bb:50:4b:3f:14:3d:22:e1:d4:78:84:
                    79:0d:62:9d:4f:db:9a:0e:04:19:f3:f8:db:12:c4:
                    46:28:c0:00:00:ad:99:0a:f5:31:c0:30:cd:b2:e8:
                    34:c1:31:21:06:cd:f2:a0:3a:dc:46:17:e0:e7:44:
                    24:4e:58:5f:3b:c1:ee:83:7f:b2:0c:ee:37:88:ad:
                    50:b7:6b:c3:aa:91:42:94:09:88:52:7e:5f:20:d9:
                    3a:e2:98:43:22:29:89:7e:4c:2d:26:44:6a:ae:a6:
                    16:66:27:4f:7f:8e:c7:2f:4f
                Exponent: 65537 (0x10001)
        X509v3 extensions:
            X509v3 Basic Constraints: 
                CA:FALSE
            Netscape Cert Type: 
                SSL Server
            Netscape Comment: 
                d3ck Server Certificate
            X509v3 Subject Key Identifier: 
                D3:76:B0:E7:EB:F6:5E:A8:AF:30:30:8C:C1:ED:F7:9F:C9:8B:16:BD
            X509v3 Authority Key Identifier: 
                keyid:21:65:06:61:45:78:8C:D5:AE:C3:B1:C4:47:78:68:6C:E4:7B:F6:BD
                DirName:/C=AQ/CN=99f4ffef1990c5c7d485213c3d5ab191
                serial:86:B6:C8:84:96:2B:C2:9C

            X509v3 Extended Key Usage: 
                TLS Web Server Authentication
            X509v3 Key Usage: 
                Digital Signature, Key Encipherment
    Signature Algorithm: sha256WithRSAEncryption
        a4:da:3f:4b:88:cf:be:22:64:68:a8:8e:d0:15:23:47:2f:23:
        81:67:31:22:eb:6a:1c:59:f1:0a:90:31:e3:46:79:62:52:14:
        bb:04:87:3f:8d:70:85:1b:7e:de:dd:fd:6c:72:04:c4:b5:0f:
        9d:fb:24:7a:0a:99:7d:e0:b1:8a:61:07:83:f2:d0:78:dc:b8:
        71:e1:3c:49:c2:9f:ad:1a:56:83:88:fa:9b:a8:1d:a8:ee:7f:
        06:88:43:b1:d2:4d:88:89:de:06:07:03:4a:0c:b6:ad:1c:ec:
        58:b1:ba:f6:5e:d5:24:59:18:27:cf:ca:62:e0:f4:d6:9f:ef:
        54:34
-----BEGIN CERTIFICATE-----
MIIDCDCCAnGgAwIBAgIRAL06O0q7yz/1D7ppw6j0ST8wDQYJKoZIhvcNAQELBQAw
ODELMAkGA1UEBhMCQVExKTAnBgNVBAMTIDk5ZjRmZmVmMTk5MGM1YzdkNDg1MjEz
YzNkNWFiMTkxMB4XDTE0MDcwNjIwMTEwMFoXDTE1MDcwNjIwMTEwMFowVTELMAkG
A1UEBhMCQVExDjAMBgNVBAgTBVdoaXRlMREwDwYDVQQHEwhEM2NrdG93bjEXMBUG
A1UEChMORDNja2FzYXVydXNSZXgxCjAIBgNVBAMUASowgZ8wDQYJKoZIhvcNAQEB
BQADgY0AMIGJAoGBANP2FSmBpOfMvkb6hx+5WJp6A7tQSz8UPSLh1HiEeQ1inU/b
mg4EGfP42xLERijAAACtmQr1McAwzbLoNMExIQbN8qA63EYX4OdEJE5YXzvB7oN/
sgzuN4itULdrw6qRQpQJiFJ+XyDZOuKYQyIpiX5MLSZEaq6mFmYnT3+Oxy9PAgMB
AAGjgfQwgfEwCQYDVR0TBAIwADARBglghkgBhvhCAQEEBAMCBkAwJgYJYIZIAYb4
QgENBBkWF2QzY2sgU2VydmVyIENlcnRpZmljYXRlMB0GA1UdDgQWBBTTdrDn6/Ze
qK8wMIzB7fefyYsWvTBoBgNVHSMEYTBfgBQhZQZhRXiM1a7DscRHeGhs5Hv2vaE8
pDowODELMAkGA1UEBhMCQVExKTAnBgNVBAMTIDk5ZjRmZmVmMTk5MGM1YzdkNDg1
MjEzYzNkNWFiMTkxggkAhrbIhJYrwpwwEwYDVR0lBAwwCgYIKwYBBQUHAwEwCwYD
VR0PBAQDAgWgMA0GCSqGSIb3DQEBCwUAA4GBAKTaP0uIz74iZGiojtAVI0cvI4Fn
MSLrahxZ8QqQMeNGeWJSFLsEhz+NcIUbft7d/WxyBMS1D537JHoKmX3gsYphB4Py
0HjcuHHhPEnCn60aVoOI+puoHajufwaIQ7HSTYiJ3gYHA0oMtq0c7FixuvZe1SRZ
GCfPymLg9Naf71Q0
-----END CERTIFICATE-----
