Certificate:
    Data:
        Version: 3 (0x2)
        Serial Number:
            2e:86:f8:d5:99:38:4a:82:2f:04:91:ba:da:cb:5c:0f
        Signature Algorithm: sha256WithRSAEncryption
        Issuer: C=AQ, CN=80f44bedd456fb7f984a0555dec92c53
        Validity
            Not Before: Jul  6 18:27:10 2014 GMT
            Not After : Jul  6 18:27:10 2015 GMT
        Subject: C=AQ, ST=White, L=D3cktown, O=D3ckasaurusRex, CN=*
        Subject Public Key Info:
            Public Key Algorithm: rsaEncryption
            RSA Public Key: (1024 bit)
                Modulus (1024 bit):
                    00:a1:d2:43:bd:5c:ea:fc:ee:3c:ce:cb:6f:70:87:
                    74:2f:14:93:0a:d2:4c:70:be:be:3e:7c:7a:5f:91:
                    44:38:2b:03:29:fc:cb:a2:43:f2:38:be:33:14:47:
                    de:cf:be:0a:0c:7e:61:93:74:26:70:4a:10:9d:ad:
                    17:53:7d:a5:c3:03:ed:11:b5:23:f7:29:cd:e3:9f:
                    b8:dd:fc:74:e3:08:8c:b1:18:03:ad:62:66:ff:b0:
                    8e:33:70:9a:b6:09:ba:c7:47:ab:d3:36:12:72:1f:
                    54:16:fd:bf:07:fd:c5:68:f1:55:95:10:46:af:36:
                    3e:be:06:89:59:6e:4a:04:45
                Exponent: 65537 (0x10001)
        X509v3 extensions:
            X509v3 Basic Constraints: 
                CA:FALSE
            Netscape Cert Type: 
                SSL Server
            Netscape Comment: 
                d3ck Server Certificate
            X509v3 Subject Key Identifier: 
                23:BF:73:1F:83:D5:0D:0E:8A:3F:B4:3B:B2:C2:5F:32:A5:BF:26:BB
            X509v3 Authority Key Identifier: 
                keyid:D5:E7:64:69:26:22:E9:64:CD:ED:D8:68:C7:3F:99:96:D1:7C:A4:11
                DirName:/C=AQ/CN=80f44bedd456fb7f984a0555dec92c53
                serial:F1:76:5F:3F:93:04:2F:6A

            X509v3 Extended Key Usage: 
                TLS Web Server Authentication
            X509v3 Key Usage: 
                Digital Signature, Key Encipherment
    Signature Algorithm: sha256WithRSAEncryption
        23:1f:a7:e4:01:e1:2a:07:2a:0b:43:ce:11:33:04:6d:30:ae:
        3c:4d:fe:7c:fc:3f:55:27:b2:e2:0e:81:5f:85:f5:dc:ae:c1:
        a9:2d:89:6f:5c:33:65:b4:f2:50:cf:10:68:1f:a6:c8:79:b9:
        30:2a:17:dc:73:56:c9:c4:41:68:6e:23:7a:6d:6c:f9:14:e3:
        ee:64:71:76:71:01:5e:f3:0d:79:c6:da:99:14:ad:65:11:66:
        66:fe:e5:65:79:b2:3c:d3:0c:83:bc:a7:08:1f:cc:ef:73:1b:
        6c:22:52:4a:a5:a2:66:f7:63:e8:8c:1d:93:ba:e8:55:3f:cb:
        2a:3b
-----BEGIN CERTIFICATE-----
MIIDBzCCAnCgAwIBAgIQLob41Zk4SoIvBJG62stcDzANBgkqhkiG9w0BAQsFADA4
MQswCQYDVQQGEwJBUTEpMCcGA1UEAxMgODBmNDRiZWRkNDU2ZmI3Zjk4NGEwNTU1
ZGVjOTJjNTMwHhcNMTQwNzA2MTgyNzEwWhcNMTUwNzA2MTgyNzEwWjBVMQswCQYD
VQQGEwJBUTEOMAwGA1UECBMFV2hpdGUxETAPBgNVBAcTCEQzY2t0b3duMRcwFQYD
VQQKEw5EM2NrYXNhdXJ1c1JleDEKMAgGA1UEAxQBKjCBnzANBgkqhkiG9w0BAQEF
AAOBjQAwgYkCgYEAodJDvVzq/O48zstvcId0LxSTCtJMcL6+Pnx6X5FEOCsDKfzL
okPyOL4zFEfez74KDH5hk3QmcEoQna0XU32lwwPtEbUj9ynN45+43fx04wiMsRgD
rWJm/7COM3Catgm6x0er0zYSch9UFv2/B/3FaPFVlRBGrzY+vgaJWW5KBEUCAwEA
AaOB9DCB8TAJBgNVHRMEAjAAMBEGCWCGSAGG+EIBAQQEAwIGQDAmBglghkgBhvhC
AQ0EGRYXZDNjayBTZXJ2ZXIgQ2VydGlmaWNhdGUwHQYDVR0OBBYEFCO/cx+D1Q0O
ij+0O7LCXzKlvya7MGgGA1UdIwRhMF+AFNXnZGkmIulkze3YaMc/mZbRfKQRoTyk
OjA4MQswCQYDVQQGEwJBUTEpMCcGA1UEAxMgODBmNDRiZWRkNDU2ZmI3Zjk4NGEw
NTU1ZGVjOTJjNTOCCQDxdl8/kwQvajATBgNVHSUEDDAKBggrBgEFBQcDATALBgNV
HQ8EBAMCBaAwDQYJKoZIhvcNAQELBQADgYEAIx+n5AHhKgcqC0POETMEbTCuPE3+
fPw/VSey4g6BX4X13K7BqS2Jb1wzZbTyUM8QaB+myHm5MCoX3HNWycRBaG4jem1s
+RTj7mRxdnEBXvMNecbamRStZRFmZv7lZXmyPNMMg7ynCB/M73MbbCJSSqWiZvdj
6Iwdk7roVT/LKjs=
-----END CERTIFICATE-----
