Certificate:
    Data:
        Version: 3 (0x2)
        Serial Number:
            96:2b:5b:00:01:dc:3d:c1:a6:e4:ea:95:12:fe:a3:57
        Signature Algorithm: sha256WithRSAEncryption
        Issuer: C=AQ, ST=White, L=D3cktown, O=D3ckasaurusRex/name=D3CK/emailAddress=d3ck@example.com
        Validity
            Not Before: Jun 25 00:36:07 2014 GMT
            Not After : Jun 25 00:36:07 2015 GMT
        Subject: C=AQ, ST=White, L=D3cktown, O=D3ckasaurusRex, CN=*
        Subject Public Key Info:
            Public Key Algorithm: rsaEncryption
            RSA Public Key: (1024 bit)
                Modulus (1024 bit):
                    00:b0:e8:da:6d:1b:d3:4f:99:93:53:46:bf:f0:d4:
                    ae:48:10:36:49:07:d3:30:87:8c:19:86:4b:41:33:
                    2a:6a:5c:dd:10:ee:e9:8c:71:e2:19:f4:ff:02:c9:
                    83:82:8f:55:6e:02:13:8f:83:73:ec:fa:a5:09:83:
                    27:5d:92:d5:c5:f9:32:9f:bf:79:74:04:77:86:4f:
                    22:48:45:ea:b3:64:b1:03:cd:55:6b:b4:e2:c1:70:
                    15:78:bf:f5:8f:a7:f1:40:0f:a3:b0:ae:b6:1e:ac:
                    cd:8f:58:b1:9d:4e:4b:3c:45:83:1a:84:3f:76:99:
                    0b:18:b1:61:9a:23:fc:46:9d
                Exponent: 65537 (0x10001)
        X509v3 extensions:
            X509v3 Basic Constraints: 
                CA:FALSE
            Netscape Cert Type: 
                SSL Server
            Netscape Comment: 
                Easy-RSA Generated Server Certificate
            X509v3 Subject Key Identifier: 
                43:5D:83:F1:B4:51:CE:C2:D4:E7:8E:67:53:BB:7F:D2:C0:B3:B6:D8
            X509v3 Authority Key Identifier: 
                keyid:5E:2B:1C:20:A3:37:5B:34:03:8E:E4:98:31:7A:05:C0:30:7C:26:CB
                DirName:/C=AQ/ST=White/L=D3cktown/O=D3ckasaurusRex/name=D3CK/emailAddress=d3ck@example.com
                serial:99:D9:83:C6:1E:AB:3A:6E

            X509v3 Extended Key Usage: 
                TLS Web Server Authentication
            X509v3 Key Usage: 
                Digital Signature, Key Encipherment
    Signature Algorithm: sha256WithRSAEncryption
        0f:1e:11:ed:86:73:b0:ed:61:cf:ac:61:2a:24:7d:bf:75:2b:
        0e:0d:95:44:81:d3:80:59:03:39:6f:d0:69:11:22:f2:20:38:
        7a:6f:f3:63:0f:25:f7:18:6f:58:d9:b8:c8:76:8b:84:8b:e7:
        0f:9b:ca:9c:59:e3:7b:c2:53:be:16:fe:4c:32:31:f1:fd:a3:
        99:60:90:08:a9:78:8a:72:88:65:23:5a:2b:e4:3f:c1:ae:ab:
        10:c5:ff:d0:a3:40:b2:f2:8d:06:b4:41:29:4a:a1:f7:b8:6f:
        f8:11:e7:a3:51:a5:31:a8:7b:ff:91:ca:2b:84:30:c9:9c:82:
        0e:02
-----BEGIN CERTIFICATE-----
MIIDnTCCAwagAwIBAgIRAJYrWwAB3D3BpuTqlRL+o1cwDQYJKoZIhvcNAQELBQAw
eTELMAkGA1UEBhMCQVExDjAMBgNVBAgTBVdoaXRlMREwDwYDVQQHEwhEM2NrdG93
bjEXMBUGA1UEChMORDNja2FzYXVydXNSZXgxDTALBgNVBCkTBEQzQ0sxHzAdBgkq
hkiG9w0BCQEWEGQzY2tAZXhhbXBsZS5jb20wHhcNMTQwNjI1MDAzNjA3WhcNMTUw
NjI1MDAzNjA3WjBVMQswCQYDVQQGEwJBUTEOMAwGA1UECBMFV2hpdGUxETAPBgNV
BAcTCEQzY2t0b3duMRcwFQYDVQQKEw5EM2NrYXNhdXJ1c1JleDEKMAgGA1UEAxQB
KjCBnzANBgkqhkiG9w0BAQEFAAOBjQAwgYkCgYEAsOjabRvTT5mTU0a/8NSuSBA2
SQfTMIeMGYZLQTMqalzdEO7pjHHiGfT/AsmDgo9VbgITj4Nz7PqlCYMnXZLVxfky
n795dAR3hk8iSEXqs2SxA81Va7TiwXAVeL/1j6fxQA+jsK62HqzNj1ixnU5LPEWD
GoQ/dpkLGLFhmiP8Rp0CAwEAAaOCAUcwggFDMAkGA1UdEwQCMAAwEQYJYIZIAYb4
QgEBBAQDAgZAMDQGCWCGSAGG+EIBDQQnFiVFYXN5LVJTQSBHZW5lcmF0ZWQgU2Vy
dmVyIENlcnRpZmljYXRlMB0GA1UdDgQWBBRDXYPxtFHOwtTnjmdTu3/SwLO22DCB
qwYDVR0jBIGjMIGggBReKxwgozdbNAOO5JgxegXAMHwmy6F9pHsweTELMAkGA1UE
BhMCQVExDjAMBgNVBAgTBVdoaXRlMREwDwYDVQQHEwhEM2NrdG93bjEXMBUGA1UE
ChMORDNja2FzYXVydXNSZXgxDTALBgNVBCkTBEQzQ0sxHzAdBgkqhkiG9w0BCQEW
EGQzY2tAZXhhbXBsZS5jb22CCQCZ2YPGHqs6bjATBgNVHSUEDDAKBggrBgEFBQcD
ATALBgNVHQ8EBAMCBaAwDQYJKoZIhvcNAQELBQADgYEADx4R7YZzsO1hz6xhKiR9
v3UrDg2VRIHTgFkDOW/QaREi8iA4em/zYw8l9xhvWNm4yHaLhIvnD5vKnFnje8JT
vhb+TDIx8f2jmWCQCKl4inKIZSNaK+Q/wa6rEMX/0KNAsvKNBrRBKUqh97hv+BHn
o1GlMah7/5HKK4QwyZyCDgI=
-----END CERTIFICATE-----
