Certificate:
    Data:
        Version: 3 (0x2)
        Serial Number:
            6e:27:ca:e3:53:95:d2:3e:4a:33:30:b3:4f:0c:4f:29
        Signature Algorithm: sha256WithRSAEncryption
        Issuer: C=AQ, ST=White, L=D3cktown, O=D3ckasaurusRex, CN=*
        Validity
            Not Before: Jul 17 20:51:49 2014 GMT
            Not After : Jul 17 20:51:49 2015 GMT
        Subject: C=AQ, ST=White, L=D3cktown, O=D3ckasaurusRex, CN=*
        Subject Public Key Info:
            Public Key Algorithm: rsaEncryption
            RSA Public Key: (1024 bit)
                Modulus (1024 bit):
                    00:ba:cc:4c:7a:e0:8b:79:3c:fa:0b:52:e8:5b:1f:
                    f4:86:01:8c:95:09:61:9a:8c:9a:0c:d8:b0:c8:12:
                    99:51:1e:fc:bd:93:9c:44:88:b7:80:61:89:ba:fb:
                    fc:a3:30:a4:80:f5:1a:50:e5:01:65:88:c3:5f:86:
                    36:fc:7c:9a:77:27:31:95:65:78:6f:07:14:25:1c:
                    8b:b8:13:c9:89:ef:af:b1:ce:cd:f3:83:e1:75:c2:
                    68:ee:ae:22:45:fe:08:db:ea:1f:1a:56:b5:bd:2c:
                    4c:3b:09:ca:08:5c:e5:6f:12:31:14:af:2c:b9:41:
                    38:a1:74:4e:ee:ec:6a:31:f3
                Exponent: 65537 (0x10001)
        X509v3 extensions:
            X509v3 Basic Constraints: 
                CA:FALSE
            Netscape Comment: 
                d3ck certz with retsin
            X509v3 Subject Key Identifier: 
                8B:A4:A6:3A:44:66:55:D2:39:A8:F1:D8:1A:31:52:AF:8F:0A:A5:F4
            X509v3 Authority Key Identifier: 
                keyid:67:20:D9:7D:D0:3B:91:7E:E1:AA:90:BF:9B:FE:7C:FC:8A:69:93:BF
                DirName:/C=AQ/ST=White/L=D3cktown/O=D3ckasaurusRex/CN=*
                serial:D2:F9:3E:B8:9E:0D:F9:20

    Signature Algorithm: sha256WithRSAEncryption
        24:ff:04:a9:be:13:fe:82:aa:df:d9:c0:25:b7:50:58:21:12:
        bb:ee:d0:ff:b9:c4:b5:24:05:36:15:c0:98:24:2e:1a:f4:a6:
        ef:e7:bf:cf:06:52:e2:c7:cd:5d:32:9d:33:e8:78:ba:a2:7f:
        bc:52:ab:c2:61:27:69:50:c9:7d:c5:76:e8:55:a1:54:8d:a4:
        18:a5:5c:5c:50:79:63:e2:b5:06:8b:ec:84:3a:1a:e9:7b:2e:
        27:40:4b:74:d4:e9:dc:cf:56:0b:81:89:6d:df:9f:5e:d4:5f:
        c8:b0:0a:85:88:af:68:24:7f:87:f9:77:1f:ab:86:78:fb:89:
        05:47
-----BEGIN CERTIFICATE-----
MIIDDDCCAnWgAwIBAgIQbifK41OV0j5KMzCzTwxPKTANBgkqhkiG9w0BAQsFADBV
MQswCQYDVQQGEwJBUTEOMAwGA1UECBMFV2hpdGUxETAPBgNVBAcTCEQzY2t0b3du
MRcwFQYDVQQKEw5EM2NrYXNhdXJ1c1JleDEKMAgGA1UEAxQBKjAeFw0xNDA3MTcy
MDUxNDlaFw0xNTA3MTcyMDUxNDlaMFUxCzAJBgNVBAYTAkFRMQ4wDAYDVQQIEwVX
aGl0ZTERMA8GA1UEBxMIRDNja3Rvd24xFzAVBgNVBAoTDkQzY2thc2F1cnVzUmV4
MQowCAYDVQQDFAEqMIGfMA0GCSqGSIb3DQEBAQUAA4GNADCBiQKBgQC6zEx64It5
PPoLUuhbH/SGAYyVCWGajJoM2LDIEplRHvy9k5xEiLeAYYm6+/yjMKSA9RpQ5QFl
iMNfhjb8fJp3JzGVZXhvBxQlHIu4E8mJ76+xzs3zg+F1wmjuriJF/gjb6h8aVrW9
LEw7CcoIXOVvEjEUryy5QTihdE7u7Gox8wIDAQABo4HcMIHZMAkGA1UdEwQCMAAw
JQYJYIZIAYb4QgENBBgWFmQzY2sgY2VydHogd2l0aCByZXRzaW4wHQYDVR0OBBYE
FIukpjpEZlXSOajx2BoxUq+PCqX0MIGFBgNVHSMEfjB8gBRnINl90DuRfuGqkL+b
/nz8immTv6FZpFcwVTELMAkGA1UEBhMCQVExDjAMBgNVBAgTBVdoaXRlMREwDwYD
VQQHEwhEM2NrdG93bjEXMBUGA1UEChMORDNja2FzYXVydXNSZXgxCjAIBgNVBAMU
ASqCCQDS+T64ng35IDANBgkqhkiG9w0BAQsFAAOBgQAk/wSpvhP+gqrf2cAlt1BY
IRK77tD/ucS1JAU2FcCYJC4a9Kbv57/PBlLix81dMp0z6Hi6on+8UqvCYSdpUMl9
xXboVaFUjaQYpVxcUHlj4rUGi+yEOhrpey4nQEt01Oncz1YLgYlt359e1F/IsAqF
iK9oJH+H+Xcfq4Z4+4kFRw==
-----END CERTIFICATE-----
