Certificate:
    Data:
        Version: 3 (0x2)
        Serial Number:
            ed:56:5c:ba:45:7d:cb:2c:1f:88:ed:4f:78:7b:5d:a1
        Signature Algorithm: sha256WithRSAEncryption
        Issuer: C=AQ, CN=5f27b5ab2f18d57e148a2fc19bed9403
        Validity
            Not Before: Jul  6 21:24:34 2014 GMT
            Not After : Jul  6 21:24:34 2015 GMT
        Subject: C=AQ, ST=White, L=D3cktown, O=D3ckasaurusRex, CN=*
        Subject Public Key Info:
            Public Key Algorithm: rsaEncryption
            RSA Public Key: (1024 bit)
                Modulus (1024 bit):
                    00:c5:e0:3c:fc:9d:d0:c2:75:fe:91:3d:d6:95:12:
                    fd:d2:6b:0b:a8:c3:79:86:a5:5f:bf:8f:b9:36:fb:
                    86:ab:e8:e7:02:2b:59:e4:70:1d:38:c8:6e:78:76:
                    2b:d3:df:75:eb:61:76:34:70:d3:73:38:eb:f7:b0:
                    41:5a:25:90:bc:82:e2:3c:bb:cb:0b:d5:2a:ad:00:
                    72:fd:fd:96:3d:0f:c6:28:56:79:7d:9e:2a:d2:6d:
                    b8:4d:6c:ad:47:a2:71:2d:16:9e:92:6f:cb:57:05:
                    fb:71:cd:ff:1d:84:5a:ef:52:9f:54:b7:1b:4b:17:
                    7a:03:04:c0:5d:08:8b:f5:a1
                Exponent: 65537 (0x10001)
        X509v3 extensions:
            X509v3 Basic Constraints: 
                CA:FALSE
            Netscape Cert Type: 
                SSL Server
            Netscape Comment: 
                d3ck Server Certificate
            X509v3 Subject Key Identifier: 
                A6:49:59:7B:B9:9F:C4:A6:01:6B:64:AE:2D:6A:55:88:63:BE:54:30
            X509v3 Authority Key Identifier: 
                keyid:44:E2:40:5F:B5:94:5A:D3:FE:23:4B:0C:F5:41:62:D0:2C:F4:AD:A7
                DirName:/C=AQ/CN=5f27b5ab2f18d57e148a2fc19bed9403
                serial:B8:DD:5C:35:BA:E3:C2:6D

            X509v3 Extended Key Usage: 
                TLS Web Server Authentication
            X509v3 Key Usage: 
                Digital Signature, Key Encipherment
    Signature Algorithm: sha256WithRSAEncryption
        08:d9:15:83:eb:d2:10:55:2f:68:52:49:b4:ed:44:3e:4a:13:
        d7:8e:42:94:9a:35:34:36:aa:63:2a:5d:4a:e0:6c:56:ac:e9:
        81:6f:14:35:62:a8:9b:ce:ca:8f:0d:e3:12:15:79:be:8d:02:
        33:33:82:7a:01:29:64:77:06:01:64:c7:ad:6f:5b:1a:cb:35:
        7e:ba:68:53:ba:6e:02:a8:71:84:3b:99:a4:4a:e1:a8:38:07:
        70:1f:d8:94:74:c2:27:4c:34:d5:b2:9f:08:a0:6e:2d:96:01:
        43:c9:67:6d:b2:7a:3e:62:f5:58:e2:52:17:c5:ae:cf:34:5a:
        01:27
-----BEGIN CERTIFICATE-----
MIIDCDCCAnGgAwIBAgIRAO1WXLpFfcssH4jtT3h7XaEwDQYJKoZIhvcNAQELBQAw
ODELMAkGA1UEBhMCQVExKTAnBgNVBAMTIDVmMjdiNWFiMmYxOGQ1N2UxNDhhMmZj
MTliZWQ5NDAzMB4XDTE0MDcwNjIxMjQzNFoXDTE1MDcwNjIxMjQzNFowVTELMAkG
A1UEBhMCQVExDjAMBgNVBAgTBVdoaXRlMREwDwYDVQQHEwhEM2NrdG93bjEXMBUG
A1UEChMORDNja2FzYXVydXNSZXgxCjAIBgNVBAMUASowgZ8wDQYJKoZIhvcNAQEB
BQADgY0AMIGJAoGBAMXgPPyd0MJ1/pE91pUS/dJrC6jDeYalX7+PuTb7hqvo5wIr
WeRwHTjIbnh2K9PfdethdjRw03M46/ewQVolkLyC4jy7ywvVKq0Acv39lj0PxihW
eX2eKtJtuE1srUeicS0WnpJvy1cF+3HN/x2EWu9Sn1S3G0sXegMEwF0Ii/WhAgMB
AAGjgfQwgfEwCQYDVR0TBAIwADARBglghkgBhvhCAQEEBAMCBkAwJgYJYIZIAYb4
QgENBBkWF2QzY2sgU2VydmVyIENlcnRpZmljYXRlMB0GA1UdDgQWBBSmSVl7uZ/E
pgFrZK4talWIY75UMDBoBgNVHSMEYTBfgBRE4kBftZRa0/4jSwz1QWLQLPStp6E8
pDowODELMAkGA1UEBhMCQVExKTAnBgNVBAMTIDVmMjdiNWFiMmYxOGQ1N2UxNDhh
MmZjMTliZWQ5NDAzggkAuN1cNbrjwm0wEwYDVR0lBAwwCgYIKwYBBQUHAwEwCwYD
VR0PBAQDAgWgMA0GCSqGSIb3DQEBCwUAA4GBAAjZFYPr0hBVL2hSSbTtRD5KE9eO
QpSaNTQ2qmMqXUrgbFas6YFvFDViqJvOyo8N4xIVeb6NAjMzgnoBKWR3BgFkx61v
WxrLNX66aFO6bgKocYQ7maRK4ag4B3Af2JR0widMNNWynwigbi2WAUPJZ22yej5i
9VjiUhfFrs80WgEn
-----END CERTIFICATE-----
