Certificate:
    Data:
        Version: 3 (0x2)
        Serial Number:
            46:43:53:89:67:a7:fb:de:1c:8c:bb:c6:21:46:6c:c2
        Signature Algorithm: sha256WithRSAEncryption
        Issuer: C=AQ, CN=131efe9be05ef5c2ca27340303a12909
        Validity
            Not Before: Jul  6 19:33:36 2014 GMT
            Not After : Jul  6 19:33:36 2015 GMT
        Subject: C=AQ, ST=White, L=D3cktown, O=D3ckasaurusRex, CN=*
        Subject Public Key Info:
            Public Key Algorithm: rsaEncryption
            RSA Public Key: (1024 bit)
                Modulus (1024 bit):
                    00:d1:1a:0a:76:98:87:97:d5:b5:1f:4a:a1:d9:9e:
                    ce:1b:e6:3b:bc:15:7b:73:29:1d:52:c4:03:83:92:
                    16:84:a6:bf:cd:c2:d1:db:95:c5:fd:13:e5:c5:e8:
                    4d:23:fb:03:84:ac:8b:6c:3d:b5:ee:39:45:63:f5:
                    6b:89:0d:16:2f:2a:de:69:5b:95:c6:ea:31:e7:90:
                    eb:40:e3:78:c2:4d:cb:8b:7b:4c:a9:06:bc:4c:85:
                    c0:46:69:4c:72:9b:61:2f:32:29:9c:02:61:6a:c5:
                    ef:f0:38:fb:d5:f6:02:39:51:5a:32:72:60:3d:91:
                    d0:f2:09:7e:04:0f:be:21:1f
                Exponent: 65537 (0x10001)
        X509v3 extensions:
            X509v3 Basic Constraints: 
                CA:FALSE
            Netscape Cert Type: 
                SSL Server
            Netscape Comment: 
                d3ck Server Certificate
            X509v3 Subject Key Identifier: 
                58:2D:BD:D7:DC:A2:4C:BA:4A:2A:49:97:42:0F:1F:15:FB:05:D7:56
            X509v3 Authority Key Identifier: 
                keyid:B6:27:DF:C7:30:01:18:4D:59:A6:66:C8:05:0A:AA:A6:70:83:06:46
                DirName:/C=AQ/CN=131efe9be05ef5c2ca27340303a12909
                serial:B6:53:53:1F:88:76:0E:92

            X509v3 Extended Key Usage: 
                TLS Web Server Authentication
            X509v3 Key Usage: 
                Digital Signature, Key Encipherment
    Signature Algorithm: sha256WithRSAEncryption
        31:9d:5a:21:5d:6c:d5:6d:5c:d9:c1:41:1f:e3:ae:55:71:81:
        99:ce:96:14:11:f8:18:69:33:a7:66:37:23:f0:e5:49:42:eb:
        2d:34:e7:d0:70:bb:92:0a:2f:fc:38:27:c3:fd:e4:a6:8f:24:
        19:ee:53:03:24:6b:e4:35:ca:3b:5e:9b:2d:f5:5e:0e:41:ce:
        90:86:33:3f:56:cb:e0:a5:ff:1e:69:7d:3e:16:e2:12:76:1b:
        52:13:07:5b:83:3e:6d:d9:08:ab:ca:73:d2:ee:aa:9e:09:5b:
        b1:98:ef:6e:76:9d:ac:5f:c6:3e:76:24:83:1e:7b:e1:7f:36:
        3b:c4
-----BEGIN CERTIFICATE-----
MIIDBzCCAnCgAwIBAgIQRkNTiWen+94cjLvGIUZswjANBgkqhkiG9w0BAQsFADA4
MQswCQYDVQQGEwJBUTEpMCcGA1UEAxMgMTMxZWZlOWJlMDVlZjVjMmNhMjczNDAz
MDNhMTI5MDkwHhcNMTQwNzA2MTkzMzM2WhcNMTUwNzA2MTkzMzM2WjBVMQswCQYD
VQQGEwJBUTEOMAwGA1UECBMFV2hpdGUxETAPBgNVBAcTCEQzY2t0b3duMRcwFQYD
VQQKEw5EM2NrYXNhdXJ1c1JleDEKMAgGA1UEAxQBKjCBnzANBgkqhkiG9w0BAQEF
AAOBjQAwgYkCgYEA0RoKdpiHl9W1H0qh2Z7OG+Y7vBV7cykdUsQDg5IWhKa/zcLR
25XF/RPlxehNI/sDhKyLbD217jlFY/VriQ0WLyreaVuVxuox55DrQON4wk3Li3tM
qQa8TIXARmlMcpthLzIpnAJhasXv8Dj71fYCOVFaMnJgPZHQ8gl+BA++IR8CAwEA
AaOB9DCB8TAJBgNVHRMEAjAAMBEGCWCGSAGG+EIBAQQEAwIGQDAmBglghkgBhvhC
AQ0EGRYXZDNjayBTZXJ2ZXIgQ2VydGlmaWNhdGUwHQYDVR0OBBYEFFgtvdfcoky6
SipJl0IPHxX7BddWMGgGA1UdIwRhMF+AFLYn38cwARhNWaZmyAUKqqZwgwZGoTyk
OjA4MQswCQYDVQQGEwJBUTEpMCcGA1UEAxMgMTMxZWZlOWJlMDVlZjVjMmNhMjcz
NDAzMDNhMTI5MDmCCQC2U1MfiHYOkjATBgNVHSUEDDAKBggrBgEFBQcDATALBgNV
HQ8EBAMCBaAwDQYJKoZIhvcNAQELBQADgYEAMZ1aIV1s1W1c2cFBH+OuVXGBmc6W
FBH4GGkzp2Y3I/DlSULrLTTn0HC7kgov/Dgnw/3kpo8kGe5TAyRr5DXKO16bLfVe
DkHOkIYzP1bL4KX/Hml9PhbiEnYbUhMHW4M+bdkIq8pz0u6qnglbsZjvbnadrF/G
PnYkgx574X82O8Q=
-----END CERTIFICATE-----
