Certificate:
    Data:
        Version: 3 (0x2)
        Serial Number:
            81:69:15:2a:88:29:fa:5c:b9:0c:72:89:b0:e6:34:d6
        Signature Algorithm: sha256WithRSAEncryption
        Issuer: C=AQ, CN=e573082e7473c9839c53307d48fbff01
        Validity
            Not Before: Jul  6 21:10:29 2014 GMT
            Not After : Jul  6 21:10:29 2015 GMT
        Subject: C=AQ, ST=White, L=D3cktown, O=D3ckasaurusRex, CN=*
        Subject Public Key Info:
            Public Key Algorithm: rsaEncryption
            RSA Public Key: (1024 bit)
                Modulus (1024 bit):
                    00:e3:d4:23:1f:85:ba:2b:78:22:8f:8d:bb:71:c8:
                    95:02:92:b5:07:29:eb:49:80:1e:cb:ab:73:b3:fb:
                    f9:f2:0d:68:d4:fe:9b:9d:01:a3:9f:c2:95:45:f6:
                    98:29:9f:d3:cd:5e:0d:2f:49:29:53:f4:d6:c1:19:
                    be:1f:b0:f0:50:a9:3d:b5:10:98:d2:91:19:e6:d7:
                    b1:58:76:50:d8:a8:4d:2b:74:80:49:78:ee:ee:47:
                    aa:29:55:8d:eb:83:7a:6a:7d:96:92:f0:91:56:c2:
                    ea:1b:ae:66:f6:de:a9:4e:77:2e:cd:9a:c9:c9:a0:
                    de:8f:8c:33:ef:35:f6:5c:89
                Exponent: 65537 (0x10001)
        X509v3 extensions:
            X509v3 Basic Constraints: 
                CA:FALSE
            Netscape Cert Type: 
                SSL Server
            Netscape Comment: 
                d3ck Server Certificate
            X509v3 Subject Key Identifier: 
                F3:D8:3F:05:11:CC:B0:10:0D:43:EC:3F:66:58:4E:E2:B2:23:EC:E3
            X509v3 Authority Key Identifier: 
                keyid:7B:E9:CE:D3:38:A8:9B:4A:F9:C2:96:14:35:3D:4E:13:BE:10:AE:1C
                DirName:/C=AQ/CN=e573082e7473c9839c53307d48fbff01
                serial:AB:BD:3D:F8:6A:D7:68:6A

            X509v3 Extended Key Usage: 
                TLS Web Server Authentication
            X509v3 Key Usage: 
                Digital Signature, Key Encipherment
    Signature Algorithm: sha256WithRSAEncryption
        23:22:e8:ec:06:5a:ff:bf:c8:d8:66:ad:46:aa:54:3a:3f:ed:
        e4:dc:ae:33:6a:2e:e3:7a:f3:5b:0f:4d:6c:a8:fc:29:cc:8d:
        96:8c:b4:5e:12:49:2e:dd:39:22:de:0c:7b:2b:2f:1c:f8:46:
        6c:8e:a3:4d:cf:d1:81:a5:ff:a5:2c:b1:2a:f5:01:28:4b:23:
        15:de:91:06:a8:8d:be:2c:ad:39:83:3c:2e:a2:d2:21:68:21:
        3d:70:ea:39:7f:ca:3a:eb:b7:a6:96:cc:7b:5b:29:0d:ed:ea:
        58:a1:33:30:4d:7f:ec:15:67:5a:1f:df:4a:0f:50:53:2d:3f:
        7a:7d
-----BEGIN CERTIFICATE-----
MIIDCDCCAnGgAwIBAgIRAIFpFSqIKfpcuQxyibDmNNYwDQYJKoZIhvcNAQELBQAw
ODELMAkGA1UEBhMCQVExKTAnBgNVBAMTIGU1NzMwODJlNzQ3M2M5ODM5YzUzMzA3
ZDQ4ZmJmZjAxMB4XDTE0MDcwNjIxMTAyOVoXDTE1MDcwNjIxMTAyOVowVTELMAkG
A1UEBhMCQVExDjAMBgNVBAgTBVdoaXRlMREwDwYDVQQHEwhEM2NrdG93bjEXMBUG
A1UEChMORDNja2FzYXVydXNSZXgxCjAIBgNVBAMUASowgZ8wDQYJKoZIhvcNAQEB
BQADgY0AMIGJAoGBAOPUIx+Fuit4Io+Nu3HIlQKStQcp60mAHsurc7P7+fINaNT+
m50Bo5/ClUX2mCmf081eDS9JKVP01sEZvh+w8FCpPbUQmNKRGebXsVh2UNioTSt0
gEl47u5HqilVjeuDemp9lpLwkVbC6huuZvbeqU53Ls2aycmg3o+MM+819lyJAgMB
AAGjgfQwgfEwCQYDVR0TBAIwADARBglghkgBhvhCAQEEBAMCBkAwJgYJYIZIAYb4
QgENBBkWF2QzY2sgU2VydmVyIENlcnRpZmljYXRlMB0GA1UdDgQWBBTz2D8FEcyw
EA1D7D9mWE7isiPs4zBoBgNVHSMEYTBfgBR76c7TOKibSvnClhQ1PU4TvhCuHKE8
pDowODELMAkGA1UEBhMCQVExKTAnBgNVBAMTIGU1NzMwODJlNzQ3M2M5ODM5YzUz
MzA3ZDQ4ZmJmZjAxggkAq709+GrXaGowEwYDVR0lBAwwCgYIKwYBBQUHAwEwCwYD
VR0PBAQDAgWgMA0GCSqGSIb3DQEBCwUAA4GBACMi6OwGWv+/yNhmrUaqVDo/7eTc
rjNqLuN681sPTWyo/CnMjZaMtF4SSS7dOSLeDHsrLxz4RmyOo03P0YGl/6UssSr1
AShLIxXekQaojb4srTmDPC6i0iFoIT1w6jl/yjrrt6aWzHtbKQ3t6lihMzBNf+wV
Z1of30oPUFMtP3p9
-----END CERTIFICATE-----
