Certificate:
    Data:
        Version: 3 (0x2)
        Serial Number:
            26:ec:62:f1:c1:3e:87:7c:73:3d:3a:58:22:19:8a:32
        Signature Algorithm: sha256WithRSAEncryption
        Issuer: C=AQ, CN=5382a22d5b249a13f1ffaada42b6e5ae
        Validity
            Not Before: Jul  5 21:23:42 2014 GMT
            Not After : Jul  5 21:23:42 2015 GMT
        Subject: C=AQ, ST=White, L=D3cktown, O=D3ckasaurusRex, CN=*
        Subject Public Key Info:
            Public Key Algorithm: rsaEncryption
            RSA Public Key: (1024 bit)
                Modulus (1024 bit):
                    00:a6:0d:36:7b:74:a1:19:e6:de:cd:58:c3:75:a1:
                    35:c6:f5:68:74:54:db:a4:de:c9:97:cc:8c:be:db:
                    2d:2e:db:64:ca:45:3b:2b:07:e4:15:17:61:60:4d:
                    4b:a0:c7:5f:9e:73:fe:70:86:14:a7:80:4b:c2:3b:
                    a6:68:15:cc:45:15:4c:48:61:e6:9a:c2:4d:f5:c9:
                    76:9c:e8:65:2a:6d:7a:5c:87:77:3c:0f:94:3e:63:
                    75:ae:f6:59:42:1f:8e:e0:df:35:70:08:ae:77:8e:
                    df:95:d6:02:33:96:bb:05:45:7e:ca:a1:7d:d6:c8:
                    ea:a0:ef:4b:18:bf:36:cf:9d
                Exponent: 65537 (0x10001)
        X509v3 extensions:
            X509v3 Basic Constraints: 
                CA:FALSE
            Netscape Cert Type: 
                SSL Server
            Netscape Comment: 
                d3ck Server Certificate
            X509v3 Subject Key Identifier: 
                20:BB:DD:2C:3C:26:2A:1B:87:58:F1:DA:C8:38:E8:F4:75:F6:01:FE
            X509v3 Authority Key Identifier: 
                keyid:BA:61:FF:22:B4:BA:1E:C9:C8:4C:47:F3:8C:4B:A0:2F:2B:6B:8F:67
                DirName:/C=AQ/CN=5382a22d5b249a13f1ffaada42b6e5ae
                serial:83:59:B6:BD:74:B6:EA:F2

            X509v3 Extended Key Usage: 
                TLS Web Server Authentication
            X509v3 Key Usage: 
                Digital Signature, Key Encipherment
    Signature Algorithm: sha256WithRSAEncryption
        7b:d5:22:33:3d:64:9b:b4:96:54:1c:13:de:f2:62:12:cc:8b:
        32:24:28:3d:9c:4a:a7:1c:0b:5f:c5:c0:59:cf:ef:8f:6d:b3:
        cc:78:10:16:37:79:28:4e:cf:00:06:cf:f5:27:4e:84:5d:e6:
        df:09:9e:f3:eb:36:b4:03:8d:1f:59:85:9b:08:d0:3a:4d:32:
        20:ba:e5:5d:d4:ac:02:2f:4f:5c:73:e7:0c:49:b6:d7:13:b1:
        43:9e:df:f8:77:dc:cd:a0:be:a3:cd:38:e9:3d:60:de:1b:10:
        b3:c1:4d:c1:49:0a:a2:37:64:04:53:51:64:40:1d:32:8e:97:
        37:b5
-----BEGIN CERTIFICATE-----
MIIDBzCCAnCgAwIBAgIQJuxi8cE+h3xzPTpYIhmKMjANBgkqhkiG9w0BAQsFADA4
MQswCQYDVQQGEwJBUTEpMCcGA1UEAxMgNTM4MmEyMmQ1YjI0OWExM2YxZmZhYWRh
NDJiNmU1YWUwHhcNMTQwNzA1MjEyMzQyWhcNMTUwNzA1MjEyMzQyWjBVMQswCQYD
VQQGEwJBUTEOMAwGA1UECBMFV2hpdGUxETAPBgNVBAcTCEQzY2t0b3duMRcwFQYD
VQQKEw5EM2NrYXNhdXJ1c1JleDEKMAgGA1UEAxQBKjCBnzANBgkqhkiG9w0BAQEF
AAOBjQAwgYkCgYEApg02e3ShGebezVjDdaE1xvVodFTbpN7Jl8yMvtstLttkykU7
KwfkFRdhYE1LoMdfnnP+cIYUp4BLwjumaBXMRRVMSGHmmsJN9cl2nOhlKm16XId3
PA+UPmN1rvZZQh+O4N81cAiud47fldYCM5a7BUV+yqF91sjqoO9LGL82z50CAwEA
AaOB9DCB8TAJBgNVHRMEAjAAMBEGCWCGSAGG+EIBAQQEAwIGQDAmBglghkgBhvhC
AQ0EGRYXZDNjayBTZXJ2ZXIgQ2VydGlmaWNhdGUwHQYDVR0OBBYEFCC73Sw8Jiob
h1jx2sg46PR19gH+MGgGA1UdIwRhMF+AFLph/yK0uh7JyExH84xLoC8ra49noTyk
OjA4MQswCQYDVQQGEwJBUTEpMCcGA1UEAxMgNTM4MmEyMmQ1YjI0OWExM2YxZmZh
YWRhNDJiNmU1YWWCCQCDWba9dLbq8jATBgNVHSUEDDAKBggrBgEFBQcDATALBgNV
HQ8EBAMCBaAwDQYJKoZIhvcNAQELBQADgYEAe9UiMz1km7SWVBwT3vJiEsyLMiQo
PZxKpxwLX8XAWc/vj22zzHgQFjd5KE7PAAbP9SdOhF3m3wme8+s2tAONH1mFmwjQ
Ok0yILrlXdSsAi9PXHPnDEm21xOxQ57f+HfczaC+o8046T1g3hsQs8FNwUkKojdk
BFNRZEAdMo6XN7U=
-----END CERTIFICATE-----
