Certificate:
    Data:
        Version: 3 (0x2)
        Serial Number:
            6e:ac:1f:19:79:df:35:d1:4d:9b:c1:fb:19:81:89:5e
        Signature Algorithm: sha256WithRSAEncryption
        Issuer: C=AQ, ST=N/A, L=Delphia, O=PUCK, OU=Crypto Cops, CN=puckasaurus/name=PUCK/emailAddress=puck@example.com
        Validity
            Not Before: Mar 23 22:54:54 2014 GMT
            Not After : Mar 20 22:54:54 2024 GMT
        Subject: C=AQ, ST=N/A, L=Delphia, O=PUCK, OU=Crypto Cops, CN=puckasaurus/name=PUCK/emailAddress=puck@example.com
        Subject Public Key Info:
            Public Key Algorithm: rsaEncryption
            RSA Public Key: (512 bit)
                Modulus (512 bit):
                    00:b7:2d:28:b2:30:f0:b8:f2:a0:8b:74:82:4a:43:
                    a8:a9:81:69:c6:dc:fc:1f:e8:f0:12:ae:61:95:b0:
                    3d:46:e7:5f:8d:89:f4:27:db:82:31:10:0a:b9:78:
                    86:2a:ee:5b:25:bf:05:90:ef:1f:e7:28:7e:48:f5:
                    8c:06:f5:9a:0f
                Exponent: 65537 (0x10001)
        X509v3 extensions:
            X509v3 Basic Constraints: 
                CA:FALSE
            Netscape Cert Type: 
                SSL Server
            Netscape Comment: 
                Easy-RSA Generated Server Certificate
            X509v3 Subject Key Identifier: 
                54:F5:67:97:66:F2:16:46:A7:60:46:6F:43:72:53:ED:CB:E2:B2:C0
            X509v3 Authority Key Identifier: 
                keyid:A1:5C:A9:15:A5:9D:FB:5E:BE:F2:72:27:5E:12:34:8B:70:B7:C9:E4
                DirName:/C=AQ/ST=N/A/L=Delphia/O=PUCK/OU=Crypto Cops/CN=puckasaurus/name=PUCK/emailAddress=puck@example.com
                serial:99:FB:1A:A2:B8:34:E0:C8

            X509v3 Extended Key Usage: 
                TLS Web Server Authentication
            X509v3 Key Usage: 
                Digital Signature, Key Encipherment
    Signature Algorithm: sha256WithRSAEncryption
        2c:e0:b8:23:6f:6e:21:6c:49:82:9d:6b:8f:11:9c:3d:d2:ed:
        01:3b:2c:7a:64:d9:04:33:dd:bd:1e:ec:d6:fc:a7:76:3a:c4:
        d2:25:79:bd:db:69:e7:0c:dc:de:77:d5:4c:81:64:7c:91:98:
        c6:c0:44:bd:76:4d:4a:3c:37:63
-----BEGIN CERTIFICATE-----
MIIDnTCCA0egAwIBAgIQbqwfGXnfNdFNm8H7GYGJXjANBgkqhkiG9w0BAQsFADCB
mDELMAkGA1UEBhMCQVExDDAKBgNVBAgTA04vQTEQMA4GA1UEBxMHRGVscGhpYTEN
MAsGA1UEChMEUFVDSzEUMBIGA1UECxMLQ3J5cHRvIENvcHMxFDASBgNVBAMTC3B1
Y2thc2F1cnVzMQ0wCwYDVQQpEwRQVUNLMR8wHQYJKoZIhvcNAQkBFhBwdWNrQGV4
YW1wbGUuY29tMB4XDTE0MDMyMzIyNTQ1NFoXDTI0MDMyMDIyNTQ1NFowgZgxCzAJ
BgNVBAYTAkFRMQwwCgYDVQQIEwNOL0ExEDAOBgNVBAcTB0RlbHBoaWExDTALBgNV
BAoTBFBVQ0sxFDASBgNVBAsTC0NyeXB0byBDb3BzMRQwEgYDVQQDEwtwdWNrYXNh
dXJ1czENMAsGA1UEKRMEUFVDSzEfMB0GCSqGSIb3DQEJARYQcHVja0BleGFtcGxl
LmNvbTBcMA0GCSqGSIb3DQEBAQUAA0sAMEgCQQC3LSiyMPC48qCLdIJKQ6ipgWnG
3Pwf6PASrmGVsD1G51+NifQn24IxEAq5eIYq7lslvwWQ7x/nKH5I9YwG9ZoPAgMB
AAGjggFpMIIBZTAJBgNVHRMEAjAAMBEGCWCGSAGG+EIBAQQEAwIGQDA0BglghkgB
hvhCAQ0EJxYlRWFzeS1SU0EgR2VuZXJhdGVkIFNlcnZlciBDZXJ0aWZpY2F0ZTAd
BgNVHQ4EFgQUVPVnl2byFkanYEZvQ3JT7cvissAwgc0GA1UdIwSBxTCBwoAUoVyp
FaWd+16+8nInXhI0i3C3yeShgZ6kgZswgZgxCzAJBgNVBAYTAkFRMQwwCgYDVQQI
EwNOL0ExEDAOBgNVBAcTB0RlbHBoaWExDTALBgNVBAoTBFBVQ0sxFDASBgNVBAsT
C0NyeXB0byBDb3BzMRQwEgYDVQQDEwtwdWNrYXNhdXJ1czENMAsGA1UEKRMEUFVD
SzEfMB0GCSqGSIb3DQEJARYQcHVja0BleGFtcGxlLmNvbYIJAJn7GqK4NODIMBMG
A1UdJQQMMAoGCCsGAQUFBwMBMAsGA1UdDwQEAwIFoDANBgkqhkiG9w0BAQsFAANB
ACzguCNvbiFsSYKda48RnD3S7QE7LHpk2QQz3b0e7Nb8p3Y6xNIleb3baecM3N53
1UyBZHyRmMbARL12TUo8N2M=
-----END CERTIFICATE-----
