Certificate:
    Data:
        Version: 3 (0x2)
        Serial Number:
            bf:db:68:fc:12:45:42:51:08:2a:d8:8a:35:4f:f3:c5
        Signature Algorithm: sha256WithRSAEncryption
        Issuer: C=AQ, ST=N/A, L=Delphia, O=PUCK, OU=Crypto Cops, CN=puckasaurus/name=PUCK/emailAddress=puck@example.com
        Validity
            Not Before: Mar 24 11:56:11 2014 GMT
            Not After : Mar 21 11:56:11 2024 GMT
        Subject: C=AQ, ST=N/A, L=Delphia, O=PUCK, OU=Crypto Cops, CN=puckasaurus/name=PUCK/emailAddress=puck@example.com
        Subject Public Key Info:
            Public Key Algorithm: rsaEncryption
            RSA Public Key: (512 bit)
                Modulus (512 bit):
                    00:c9:f9:9b:e1:2f:f1:45:fd:05:da:82:5e:14:3f:
                    0d:84:01:68:d7:78:20:c2:c8:25:16:d4:98:84:d4:
                    18:c2:96:fb:8e:b0:59:47:e6:82:dd:ee:44:4c:03:
                    dd:d5:0d:4f:27:a6:a0:ae:4e:a3:23:92:9a:0c:64:
                    a6:c2:00:52:41
                Exponent: 65537 (0x10001)
        X509v3 extensions:
            X509v3 Basic Constraints: 
                CA:FALSE
            Netscape Cert Type: 
                SSL Server
            Netscape Comment: 
                Easy-RSA Generated Server Certificate
            X509v3 Subject Key Identifier: 
                A5:38:71:FE:A0:70:CE:10:6B:FC:72:DA:80:B6:5E:F7:AC:CF:44:57
            X509v3 Authority Key Identifier: 
                keyid:3B:00:56:7B:B8:3A:97:0A:AF:C5:F8:98:B1:0C:08:D5:EA:99:6F:BB
                DirName:/C=AQ/ST=N/A/L=Delphia/O=PUCK/OU=Crypto Cops/CN=puckasaurus/name=PUCK/emailAddress=puck@example.com
                serial:C3:59:00:84:31:15:E2:A5

            X509v3 Extended Key Usage: 
                TLS Web Server Authentication
            X509v3 Key Usage: 
                Digital Signature, Key Encipherment
    Signature Algorithm: sha256WithRSAEncryption
        a5:5a:9d:bb:5f:c6:4a:31:ca:ad:e7:fb:fe:9f:ba:df:ca:7b:
        cc:31:53:73:e3:d3:f2:9b:df:59:75:99:9b:e9:f4:eb:19:fb:
        a2:49:cc:59:c3:cc:51:80:fe:5f:a2:71:ff:62:8e:ee:7d:86:
        36:6a:95:4c:7e:57:76:51:c9:a8
-----BEGIN CERTIFICATE-----
MIIDnjCCA0igAwIBAgIRAL/baPwSRUJRCCrYijVP88UwDQYJKoZIhvcNAQELBQAw
gZgxCzAJBgNVBAYTAkFRMQwwCgYDVQQIEwNOL0ExEDAOBgNVBAcTB0RlbHBoaWEx
DTALBgNVBAoTBFBVQ0sxFDASBgNVBAsTC0NyeXB0byBDb3BzMRQwEgYDVQQDEwtw
dWNrYXNhdXJ1czENMAsGA1UEKRMEUFVDSzEfMB0GCSqGSIb3DQEJARYQcHVja0Bl
eGFtcGxlLmNvbTAeFw0xNDAzMjQxMTU2MTFaFw0yNDAzMjExMTU2MTFaMIGYMQsw
CQYDVQQGEwJBUTEMMAoGA1UECBMDTi9BMRAwDgYDVQQHEwdEZWxwaGlhMQ0wCwYD
VQQKEwRQVUNLMRQwEgYDVQQLEwtDcnlwdG8gQ29wczEUMBIGA1UEAxMLcHVja2Fz
YXVydXMxDTALBgNVBCkTBFBVQ0sxHzAdBgkqhkiG9w0BCQEWEHB1Y2tAZXhhbXBs
ZS5jb20wXDANBgkqhkiG9w0BAQEFAANLADBIAkEAyfmb4S/xRf0F2oJeFD8NhAFo
13ggwsglFtSYhNQYwpb7jrBZR+aC3e5ETAPd1Q1PJ6agrk6jI5KaDGSmwgBSQQID
AQABo4IBaTCCAWUwCQYDVR0TBAIwADARBglghkgBhvhCAQEEBAMCBkAwNAYJYIZI
AYb4QgENBCcWJUVhc3ktUlNBIEdlbmVyYXRlZCBTZXJ2ZXIgQ2VydGlmaWNhdGUw
HQYDVR0OBBYEFKU4cf6gcM4Qa/xy2oC2Xvesz0RXMIHNBgNVHSMEgcUwgcKAFDsA
Vnu4OpcKr8X4mLEMCNXqmW+7oYGepIGbMIGYMQswCQYDVQQGEwJBUTEMMAoGA1UE
CBMDTi9BMRAwDgYDVQQHEwdEZWxwaGlhMQ0wCwYDVQQKEwRQVUNLMRQwEgYDVQQL
EwtDcnlwdG8gQ29wczEUMBIGA1UEAxMLcHVja2FzYXVydXMxDTALBgNVBCkTBFBV
Q0sxHzAdBgkqhkiG9w0BCQEWEHB1Y2tAZXhhbXBsZS5jb22CCQDDWQCEMRXipTAT
BgNVHSUEDDAKBggrBgEFBQcDATALBgNVHQ8EBAMCBaAwDQYJKoZIhvcNAQELBQAD
QQClWp27X8ZKMcqt5/v+n7rfynvMMVNz49Pym99ZdZmb6fTrGfuiScxZw8xRgP5f
onH/Yo7ufYY2apVMfld2Ucmo
-----END CERTIFICATE-----
