Certificate:
    Data:
        Version: 3 (0x2)
        Serial Number:
            01:81:1d:9d:64:5f:95:e4:c9:c1:cd:4f:57:d7:79:42
        Signature Algorithm: sha256WithRSAEncryption
        Issuer: C=AQ, ST=N/A, L=Delphia, O=PUCK, OU=Crypto Cops, CN=puckasaurus/name=PUCK/emailAddress=puck@example.com
        Validity
            Not Before: Apr  4 02:36:56 2014 GMT
            Not After : Apr  1 02:36:56 2024 GMT
        Subject: C=AQ, ST=N/A, L=Delphia, O=PUCK, OU=Crypto Cops, CN=puckasaurus/name=PUCK/emailAddress=puck@example.com
        Subject Public Key Info:
            Public Key Algorithm: rsaEncryption
            RSA Public Key: (512 bit)
                Modulus (512 bit):
                    00:d4:b2:2a:24:d7:9b:68:ed:27:d7:ae:5e:f4:5f:
                    e3:98:43:e0:22:92:3b:e3:46:3f:dc:f7:46:79:bc:
                    31:4b:bc:4d:1c:61:10:e1:43:b7:5f:2d:20:91:3b:
                    12:6f:78:b3:74:55:fc:b9:b0:88:a6:09:a8:f2:d9:
                    e8:68:f0:6a:c9
                Exponent: 65537 (0x10001)
        X509v3 extensions:
            X509v3 Basic Constraints: 
                CA:FALSE
            Netscape Cert Type: 
                SSL Server
            Netscape Comment: 
                Easy-RSA Generated Server Certificate
            X509v3 Subject Key Identifier: 
                09:0F:0C:DA:8C:EE:54:50:FF:A6:5A:06:B7:6D:08:35:B2:5C:59:E3
            X509v3 Authority Key Identifier: 
                keyid:1B:30:F6:FB:95:3B:B1:C9:AE:1F:63:FF:E0:DA:EF:DE:CA:A2:C8:1B
                DirName:/C=AQ/ST=N/A/L=Delphia/O=PUCK/OU=Crypto Cops/CN=puckasaurus/name=PUCK/emailAddress=puck@example.com
                serial:87:9F:C9:A2:C6:59:31:A3

            X509v3 Extended Key Usage: 
                TLS Web Server Authentication
            X509v3 Key Usage: 
                Digital Signature, Key Encipherment
    Signature Algorithm: sha256WithRSAEncryption
        22:5a:70:61:89:7a:de:fa:24:88:e3:95:34:46:6a:d4:ae:bb:
        90:b6:98:27:b6:d7:65:f7:3f:22:e4:55:62:37:ba:c8:39:e4:
        a3:76:94:84:2b:11:13:46:23:09:4b:6e:59:2a:54:4c:c9:e6:
        83:f8:b3:95:60:21:0b:e3:fd:60
-----BEGIN CERTIFICATE-----
MIIDnTCCA0egAwIBAgIQAYEdnWRfleTJwc1PV9d5QjANBgkqhkiG9w0BAQsFADCB
mDELMAkGA1UEBhMCQVExDDAKBgNVBAgTA04vQTEQMA4GA1UEBxMHRGVscGhpYTEN
MAsGA1UEChMEUFVDSzEUMBIGA1UECxMLQ3J5cHRvIENvcHMxFDASBgNVBAMTC3B1
Y2thc2F1cnVzMQ0wCwYDVQQpEwRQVUNLMR8wHQYJKoZIhvcNAQkBFhBwdWNrQGV4
YW1wbGUuY29tMB4XDTE0MDQwNDAyMzY1NloXDTI0MDQwMTAyMzY1NlowgZgxCzAJ
BgNVBAYTAkFRMQwwCgYDVQQIEwNOL0ExEDAOBgNVBAcTB0RlbHBoaWExDTALBgNV
BAoTBFBVQ0sxFDASBgNVBAsTC0NyeXB0byBDb3BzMRQwEgYDVQQDEwtwdWNrYXNh
dXJ1czENMAsGA1UEKRMEUFVDSzEfMB0GCSqGSIb3DQEJARYQcHVja0BleGFtcGxl
LmNvbTBcMA0GCSqGSIb3DQEBAQUAA0sAMEgCQQDUsiok15to7SfXrl70X+OYQ+Ai
kjvjRj/c90Z5vDFLvE0cYRDhQ7dfLSCROxJveLN0Vfy5sIimCajy2eho8GrJAgMB
AAGjggFpMIIBZTAJBgNVHRMEAjAAMBEGCWCGSAGG+EIBAQQEAwIGQDA0BglghkgB
hvhCAQ0EJxYlRWFzeS1SU0EgR2VuZXJhdGVkIFNlcnZlciBDZXJ0aWZpY2F0ZTAd
BgNVHQ4EFgQUCQ8M2ozuVFD/ploGt20INbJcWeMwgc0GA1UdIwSBxTCBwoAUGzD2
+5U7scmuH2P/4Nrv3sqiyBuhgZ6kgZswgZgxCzAJBgNVBAYTAkFRMQwwCgYDVQQI
EwNOL0ExEDAOBgNVBAcTB0RlbHBoaWExDTALBgNVBAoTBFBVQ0sxFDASBgNVBAsT
C0NyeXB0byBDb3BzMRQwEgYDVQQDEwtwdWNrYXNhdXJ1czENMAsGA1UEKRMEUFVD
SzEfMB0GCSqGSIb3DQEJARYQcHVja0BleGFtcGxlLmNvbYIJAIefyaLGWTGjMBMG
A1UdJQQMMAoGCCsGAQUFBwMBMAsGA1UdDwQEAwIFoDANBgkqhkiG9w0BAQsFAANB
ACJacGGJet76JIjjlTRGatSuu5C2mCe212X3PyLkVWI3usg55KN2lIQrERNGIwlL
blkqVEzJ5oP4s5VgIQvj/WA=
-----END CERTIFICATE-----
