Certificate:
    Data:
        Version: 3 (0x2)
        Serial Number:
            ea:8f:e6:af:bb:a6:44:8a:ce:8a:41:69:d1:2a:f7:f6
        Signature Algorithm: sha256WithRSAEncryption
        Issuer: C=AQ, ST=N/A, L=Delphia, O=PUCK, OU=Crypto Cops, CN=puckasaurus/name=PUCK/emailAddress=puck@example.com
        Validity
            Not Before: Mar 23 17:16:56 2014 GMT
            Not After : Mar 20 17:16:56 2024 GMT
        Subject: C=AQ, ST=N/A, L=Delphia, O=PUCK, OU=Crypto Cops, CN=puckasaurus/name=PUCK/emailAddress=puck@example.com
        Subject Public Key Info:
            Public Key Algorithm: rsaEncryption
            RSA Public Key: (512 bit)
                Modulus (512 bit):
                    00:cc:aa:dc:81:b7:62:8d:5f:58:ac:e4:89:fd:f2:
                    9e:91:8a:26:41:20:11:bb:29:f7:d8:b1:84:0a:c8:
                    0b:7a:67:dd:16:92:be:ea:77:7c:3f:23:c1:42:3c:
                    ff:0d:5d:b5:e0:48:c4:a2:12:cb:7b:32:46:67:d9:
                    43:e4:1f:a9:93
                Exponent: 65537 (0x10001)
        X509v3 extensions:
            X509v3 Basic Constraints: 
                CA:FALSE
            Netscape Cert Type: 
                SSL Server
            Netscape Comment: 
                Easy-RSA Generated Server Certificate
            X509v3 Subject Key Identifier: 
                E1:71:53:87:6E:38:EA:83:D9:44:B2:EA:D2:41:AF:2A:70:05:F0:B3
            X509v3 Authority Key Identifier: 
                keyid:01:09:CB:CC:93:CA:B3:FE:5C:E7:EB:85:0C:E9:C2:5D:D3:90:71:1B
                DirName:/C=AQ/ST=N/A/L=Delphia/O=PUCK/OU=Crypto Cops/CN=puckasaurus/name=PUCK/emailAddress=puck@example.com
                serial:96:83:EF:39:BE:F1:0A:E5

            X509v3 Extended Key Usage: 
                TLS Web Server Authentication
            X509v3 Key Usage: 
                Digital Signature, Key Encipherment
    Signature Algorithm: sha256WithRSAEncryption
        40:eb:28:73:7f:69:13:9a:61:f5:a1:2b:c2:4b:81:98:29:fd:
        49:0f:79:ab:03:76:99:65:c8:b5:fc:8c:f9:20:5e:1c:8d:19:
        73:58:a7:68:98:66:30:59:7e:c2:51:5c:f6:ba:b3:03:f3:fd:
        63:03:b1:eb:65:85:2a:b5:ca:8c
-----BEGIN CERTIFICATE-----
MIIDnjCCA0igAwIBAgIRAOqP5q+7pkSKzopBadEq9/YwDQYJKoZIhvcNAQELBQAw
gZgxCzAJBgNVBAYTAkFRMQwwCgYDVQQIEwNOL0ExEDAOBgNVBAcTB0RlbHBoaWEx
DTALBgNVBAoTBFBVQ0sxFDASBgNVBAsTC0NyeXB0byBDb3BzMRQwEgYDVQQDEwtw
dWNrYXNhdXJ1czENMAsGA1UEKRMEUFVDSzEfMB0GCSqGSIb3DQEJARYQcHVja0Bl
eGFtcGxlLmNvbTAeFw0xNDAzMjMxNzE2NTZaFw0yNDAzMjAxNzE2NTZaMIGYMQsw
CQYDVQQGEwJBUTEMMAoGA1UECBMDTi9BMRAwDgYDVQQHEwdEZWxwaGlhMQ0wCwYD
VQQKEwRQVUNLMRQwEgYDVQQLEwtDcnlwdG8gQ29wczEUMBIGA1UEAxMLcHVja2Fz
YXVydXMxDTALBgNVBCkTBFBVQ0sxHzAdBgkqhkiG9w0BCQEWEHB1Y2tAZXhhbXBs
ZS5jb20wXDANBgkqhkiG9w0BAQEFAANLADBIAkEAzKrcgbdijV9YrOSJ/fKekYom
QSARuyn32LGECsgLemfdFpK+6nd8PyPBQjz/DV214EjEohLLezJGZ9lD5B+pkwID
AQABo4IBaTCCAWUwCQYDVR0TBAIwADARBglghkgBhvhCAQEEBAMCBkAwNAYJYIZI
AYb4QgENBCcWJUVhc3ktUlNBIEdlbmVyYXRlZCBTZXJ2ZXIgQ2VydGlmaWNhdGUw
HQYDVR0OBBYEFOFxU4duOOqD2USy6tJBrypwBfCzMIHNBgNVHSMEgcUwgcKAFAEJ
y8yTyrP+XOfrhQzpwl3TkHEboYGepIGbMIGYMQswCQYDVQQGEwJBUTEMMAoGA1UE
CBMDTi9BMRAwDgYDVQQHEwdEZWxwaGlhMQ0wCwYDVQQKEwRQVUNLMRQwEgYDVQQL
EwtDcnlwdG8gQ29wczEUMBIGA1UEAxMLcHVja2FzYXVydXMxDTALBgNVBCkTBFBV
Q0sxHzAdBgkqhkiG9w0BCQEWEHB1Y2tAZXhhbXBsZS5jb22CCQCWg+85vvEK5TAT
BgNVHSUEDDAKBggrBgEFBQcDATALBgNVHQ8EBAMCBaAwDQYJKoZIhvcNAQELBQAD
QQBA6yhzf2kTmmH1oSvCS4GYKf1JD3mrA3aZZci1/Iz5IF4cjRlzWKdomGYwWX7C
UVz2urMD8/1jA7HrZYUqtcqM
-----END CERTIFICATE-----
