Certificate:
    Data:
        Version: 3 (0x2)
        Serial Number:
            a0:01:c3:fe:1f:3a:e3:82:47:fb:3c:0a:38:15:bd:ee
        Signature Algorithm: sha256WithRSAEncryption
        Issuer: C=AQ, ST=White, L=D3cktown, O=D3ckasaurusRex, CN=*
        Validity
            Not Before: Jul 17 20:27:53 2014 GMT
            Not After : Jul 17 20:27:53 2015 GMT
        Subject: C=AQ, ST=White, L=D3cktown, O=D3ckasaurusRex, CN=*
        Subject Public Key Info:
            Public Key Algorithm: rsaEncryption
            RSA Public Key: (1024 bit)
                Modulus (1024 bit):
                    00:f6:70:3b:42:7f:57:b8:84:f2:9a:6c:12:b8:f7:
                    00:46:b1:a8:1e:05:eb:41:97:68:20:b3:13:24:af:
                    bc:bf:bf:83:94:e3:af:31:44:7d:4c:a8:48:8d:78:
                    04:fd:04:19:af:e3:5d:6c:b4:5f:ab:e0:0f:16:67:
                    2a:ad:5a:b9:94:2b:86:58:6f:89:56:0b:38:c5:a2:
                    34:40:25:0f:54:81:60:5a:15:b3:4f:90:f0:d1:ae:
                    04:0a:8b:c1:f7:6e:d4:39:00:7a:76:4a:b3:94:d4:
                    7d:6c:0c:56:b8:10:d6:f5:27:55:64:0a:90:02:f4:
                    32:4c:fa:43:c9:a3:71:35:f3
                Exponent: 65537 (0x10001)
        X509v3 extensions:
            X509v3 Basic Constraints: 
                CA:FALSE
            Netscape Comment: 
                d3ck certz with retsin
            X509v3 Subject Key Identifier: 
                6C:3F:2C:92:69:A3:E2:20:EE:9A:A2:05:C5:BF:D1:D4:8B:69:5A:F4
            X509v3 Authority Key Identifier: 
                keyid:2E:94:8C:93:74:FD:6E:05:CB:CE:2A:42:53:40:DC:98:59:40:C5:53
                DirName:/C=AQ/ST=White/L=D3cktown/O=D3ckasaurusRex/CN=*
                serial:DA:60:63:72:D2:88:B4:24

    Signature Algorithm: sha256WithRSAEncryption
        67:f9:55:24:aa:50:ca:a5:24:39:55:8b:7d:58:64:2a:26:44:
        e2:82:a7:8b:23:74:12:8a:47:e2:2d:34:d5:45:63:a0:06:e9:
        bf:b1:05:96:d7:72:2c:b3:7a:9e:bb:04:a4:37:1a:76:79:e3:
        e1:91:8a:b2:55:32:a2:42:f5:f3:fc:3c:0f:d3:9b:2c:59:b5:
        db:c2:f2:63:58:5a:d7:68:90:99:d0:73:fd:64:bf:3d:6d:47:
        b0:04:c2:16:60:d1:7c:df:f2:6b:a7:8d:ef:78:52:6e:8e:3e:
        24:90:8b:b6:b1:6f:31:2d:57:a8:d8:9c:7b:68:7e:d2:01:a1:
        11:17
-----BEGIN CERTIFICATE-----
MIIDDTCCAnagAwIBAgIRAKABw/4fOuOCR/s8CjgVve4wDQYJKoZIhvcNAQELBQAw
VTELMAkGA1UEBhMCQVExDjAMBgNVBAgTBVdoaXRlMREwDwYDVQQHEwhEM2NrdG93
bjEXMBUGA1UEChMORDNja2FzYXVydXNSZXgxCjAIBgNVBAMUASowHhcNMTQwNzE3
MjAyNzUzWhcNMTUwNzE3MjAyNzUzWjBVMQswCQYDVQQGEwJBUTEOMAwGA1UECBMF
V2hpdGUxETAPBgNVBAcTCEQzY2t0b3duMRcwFQYDVQQKEw5EM2NrYXNhdXJ1c1Jl
eDEKMAgGA1UEAxQBKjCBnzANBgkqhkiG9w0BAQEFAAOBjQAwgYkCgYEA9nA7Qn9X
uITymmwSuPcARrGoHgXrQZdoILMTJK+8v7+DlOOvMUR9TKhIjXgE/QQZr+NdbLRf
q+APFmcqrVq5lCuGWG+JVgs4xaI0QCUPVIFgWhWzT5Dw0a4ECovB927UOQB6dkqz
lNR9bAxWuBDW9SdVZAqQAvQyTPpDyaNxNfMCAwEAAaOB3DCB2TAJBgNVHRMEAjAA
MCUGCWCGSAGG+EIBDQQYFhZkM2NrIGNlcnR6IHdpdGggcmV0c2luMB0GA1UdDgQW
BBRsPyySaaPiIO6aogXFv9HUi2la9DCBhQYDVR0jBH4wfIAULpSMk3T9bgXLzipC
U0DcmFlAxVOhWaRXMFUxCzAJBgNVBAYTAkFRMQ4wDAYDVQQIEwVXaGl0ZTERMA8G
A1UEBxMIRDNja3Rvd24xFzAVBgNVBAoTDkQzY2thc2F1cnVzUmV4MQowCAYDVQQD
FAEqggkA2mBjctKItCQwDQYJKoZIhvcNAQELBQADgYEAZ/lVJKpQyqUkOVWLfVhk
KiZE4oKniyN0EopH4i001UVjoAbpv7EFltdyLLN6nrsEpDcadnnj4ZGKslUyokL1
8/w8D9ObLFm128LyY1ha12iQmdBz/WS/PW1HsATCFmDRfN/ya6eN73hSbo4+JJCL
trFvMS1XqNice2h+0gGhERc=
-----END CERTIFICATE-----
