Certificate:
    Data:
        Version: 3 (0x2)
        Serial Number:
            21:b2:fd:06:33:a6:6a:bf:d7:76:96:d5:d2:55:f9:6b
        Signature Algorithm: sha256WithRSAEncryption
        Issuer: C=AQ, ST=N/A, L=Delphia, O=PUCK, OU=Crypto Cops, CN=puckasaurus/name=PUCK/emailAddress=puck@example.com
        Validity
            Not Before: Apr  2 03:31:32 2014 GMT
            Not After : Apr  2 03:31:32 2015 GMT
        Subject: C=AQ, ST=N/A, L=Delphia, O=PUCK, OU=Crypto Cops, CN=puckasaurus/name=PUCK/emailAddress=puck@example.com
        Subject Public Key Info:
            Public Key Algorithm: rsaEncryption
            RSA Public Key: (512 bit)
                Modulus (512 bit):
                    00:a4:81:1b:fc:68:82:19:b0:4e:3e:70:72:28:84:
                    75:a1:c5:12:4f:d6:ee:ba:d5:d4:79:67:6d:cc:c5:
                    45:5f:1d:4a:92:93:1c:0d:97:5f:eb:56:48:71:1a:
                    92:cc:cf:8c:62:83:3b:b1:d1:7a:df:21:40:28:8a:
                    14:7e:80:ae:ab
                Exponent: 65537 (0x10001)
        X509v3 extensions:
            X509v3 Basic Constraints: 
                CA:FALSE
            Netscape Comment: 
                Easy-RSA Generated Certificate
            X509v3 Subject Key Identifier: 
                11:83:B4:40:09:2E:0A:48:6B:31:AB:FE:24:DF:E6:F7:40:6C:62:CF
            X509v3 Authority Key Identifier: 
                keyid:64:C6:64:21:41:66:FC:4F:C9:12:6E:3C:96:1B:36:C4:8A:88:7B:58
                DirName:/C=AQ/ST=N/A/L=Delphia/O=PUCK/OU=Crypto Cops/CN=puckasaurus/name=PUCK/emailAddress=puck@example.com
                serial:C8:E9:48:45:16:EE:64:62

            X509v3 Extended Key Usage: 
                TLS Web Client Authentication
            X509v3 Key Usage: 
                Digital Signature
    Signature Algorithm: sha256WithRSAEncryption
        7e:a3:99:2e:fd:35:9a:c9:65:c3:e9:f2:f7:f2:a2:2f:85:e0:
        ad:a3:bd:cf:e8:73:7c:41:06:e9:61:4a:f2:ea:97:dc:db:24:
        6c:15:dd:fd:25:88:d7:0b:24:fb:5d:84:90:a2:99:fc:a1:0f:
        e2:d4:d5:9f:31:66:aa:fc:94:df
-----BEGIN CERTIFICATE-----
MIIDgzCCAy2gAwIBAgIQIbL9BjOmar/XdpbV0lX5azANBgkqhkiG9w0BAQsFADCB
mDELMAkGA1UEBhMCQVExDDAKBgNVBAgTA04vQTEQMA4GA1UEBxMHRGVscGhpYTEN
MAsGA1UEChMEUFVDSzEUMBIGA1UECxMLQ3J5cHRvIENvcHMxFDASBgNVBAMTC3B1
Y2thc2F1cnVzMQ0wCwYDVQQpEwRQVUNLMR8wHQYJKoZIhvcNAQkBFhBwdWNrQGV4
YW1wbGUuY29tMB4XDTE0MDQwMjAzMzEzMloXDTE1MDQwMjAzMzEzMlowgZgxCzAJ
BgNVBAYTAkFRMQwwCgYDVQQIEwNOL0ExEDAOBgNVBAcTB0RlbHBoaWExDTALBgNV
BAoTBFBVQ0sxFDASBgNVBAsTC0NyeXB0byBDb3BzMRQwEgYDVQQDEwtwdWNrYXNh
dXJ1czENMAsGA1UEKRMEUFVDSzEfMB0GCSqGSIb3DQEJARYQcHVja0BleGFtcGxl
LmNvbTBcMA0GCSqGSIb3DQEBAQUAA0sAMEgCQQCkgRv8aIIZsE4+cHIohHWhxRJP
1u661dR5Z23MxUVfHUqSkxwNl1/rVkhxGpLMz4xigzux0XrfIUAoihR+gK6rAgMB
AAGjggFPMIIBSzAJBgNVHRMEAjAAMC0GCWCGSAGG+EIBDQQgFh5FYXN5LVJTQSBH
ZW5lcmF0ZWQgQ2VydGlmaWNhdGUwHQYDVR0OBBYEFBGDtEAJLgpIazGr/iTf5vdA
bGLPMIHNBgNVHSMEgcUwgcKAFGTGZCFBZvxPyRJuPJYbNsSKiHtYoYGepIGbMIGY
MQswCQYDVQQGEwJBUTEMMAoGA1UECBMDTi9BMRAwDgYDVQQHEwdEZWxwaGlhMQ0w
CwYDVQQKEwRQVUNLMRQwEgYDVQQLEwtDcnlwdG8gQ29wczEUMBIGA1UEAxMLcHVj
a2FzYXVydXMxDTALBgNVBCkTBFBVQ0sxHzAdBgkqhkiG9w0BCQEWEHB1Y2tAZXhh
bXBsZS5jb22CCQDI6UhFFu5kYjATBgNVHSUEDDAKBggrBgEFBQcDAjALBgNVHQ8E
BAMCB4AwDQYJKoZIhvcNAQELBQADQQB+o5ku/TWayWXD6fL38qIvheCto73P6HN8
QQbpYUry6pfc2yRsFd39JYjXCyT7XYSQopn8oQ/i1NWfMWaq/JTf
-----END CERTIFICATE-----
