Certificate:
    Data:
        Version: 3 (0x2)
        Serial Number:
            01:81:1d:9d:64:5f:95:e4:c9:c1:cd:4f:57:d7:79:43
        Signature Algorithm: sha256WithRSAEncryption
        Issuer: C=AQ, ST=N/A, L=Delphia, O=PUCK, OU=Crypto Cops, CN=puckasaurus/name=PUCK/emailAddress=puck@example.com
        Validity
            Not Before: Apr  4 02:36:56 2014 GMT
            Not After : Apr  4 02:36:56 2015 GMT
        Subject: C=AQ, ST=N/A, L=Delphia, O=PUCK, OU=Crypto Cops, CN=puckasaurus/name=PUCK/emailAddress=puck@example.com
        Subject Public Key Info:
            Public Key Algorithm: rsaEncryption
            RSA Public Key: (512 bit)
                Modulus (512 bit):
                    00:9c:56:ef:73:e3:c9:03:77:fd:5c:fd:f5:32:94:
                    65:34:fe:c8:59:7b:2c:95:51:9e:e1:04:d7:e9:cb:
                    96:c4:44:7f:a4:17:57:7a:17:22:0a:1a:5a:1b:e0:
                    9d:4f:ee:5c:4d:43:a5:45:96:21:ac:b2:69:8f:a9:
                    58:c1:5b:1d:2d
                Exponent: 65537 (0x10001)
        X509v3 extensions:
            X509v3 Basic Constraints: 
                CA:FALSE
            Netscape Comment: 
                Easy-RSA Generated Certificate
            X509v3 Subject Key Identifier: 
                06:F4:E3:3C:E8:7A:B0:1A:73:A4:CA:07:0A:04:3D:DC:07:BA:DA:8A
            X509v3 Authority Key Identifier: 
                keyid:1B:30:F6:FB:95:3B:B1:C9:AE:1F:63:FF:E0:DA:EF:DE:CA:A2:C8:1B
                DirName:/C=AQ/ST=N/A/L=Delphia/O=PUCK/OU=Crypto Cops/CN=puckasaurus/name=PUCK/emailAddress=puck@example.com
                serial:87:9F:C9:A2:C6:59:31:A3

            X509v3 Extended Key Usage: 
                TLS Web Client Authentication
            X509v3 Key Usage: 
                Digital Signature
    Signature Algorithm: sha256WithRSAEncryption
        5f:50:80:5d:2c:f9:f4:9c:b4:e5:5c:ff:e3:0e:87:a2:b7:db:
        1f:56:95:24:1f:1a:63:fc:d7:73:c0:87:68:5f:b7:c2:c1:17:
        b0:71:a8:7b:d7:06:0d:26:f9:3e:6f:35:9f:57:01:16:cf:ad:
        3e:bd:3d:53:07:28:78:29:92:aa
-----BEGIN CERTIFICATE-----
MIIDgzCCAy2gAwIBAgIQAYEdnWRfleTJwc1PV9d5QzANBgkqhkiG9w0BAQsFADCB
mDELMAkGA1UEBhMCQVExDDAKBgNVBAgTA04vQTEQMA4GA1UEBxMHRGVscGhpYTEN
MAsGA1UEChMEUFVDSzEUMBIGA1UECxMLQ3J5cHRvIENvcHMxFDASBgNVBAMTC3B1
Y2thc2F1cnVzMQ0wCwYDVQQpEwRQVUNLMR8wHQYJKoZIhvcNAQkBFhBwdWNrQGV4
YW1wbGUuY29tMB4XDTE0MDQwNDAyMzY1NloXDTE1MDQwNDAyMzY1NlowgZgxCzAJ
BgNVBAYTAkFRMQwwCgYDVQQIEwNOL0ExEDAOBgNVBAcTB0RlbHBoaWExDTALBgNV
BAoTBFBVQ0sxFDASBgNVBAsTC0NyeXB0byBDb3BzMRQwEgYDVQQDEwtwdWNrYXNh
dXJ1czENMAsGA1UEKRMEUFVDSzEfMB0GCSqGSIb3DQEJARYQcHVja0BleGFtcGxl
LmNvbTBcMA0GCSqGSIb3DQEBAQUAA0sAMEgCQQCcVu9z48kDd/1c/fUylGU0/shZ
eyyVUZ7hBNfpy5bERH+kF1d6FyIKGlob4J1P7lxNQ6VFliGssmmPqVjBWx0tAgMB
AAGjggFPMIIBSzAJBgNVHRMEAjAAMC0GCWCGSAGG+EIBDQQgFh5FYXN5LVJTQSBH
ZW5lcmF0ZWQgQ2VydGlmaWNhdGUwHQYDVR0OBBYEFAb04zzoerAac6TKBwoEPdwH
utqKMIHNBgNVHSMEgcUwgcKAFBsw9vuVO7HJrh9j/+Da797KosgboYGepIGbMIGY
MQswCQYDVQQGEwJBUTEMMAoGA1UECBMDTi9BMRAwDgYDVQQHEwdEZWxwaGlhMQ0w
CwYDVQQKEwRQVUNLMRQwEgYDVQQLEwtDcnlwdG8gQ29wczEUMBIGA1UEAxMLcHVj
a2FzYXVydXMxDTALBgNVBCkTBFBVQ0sxHzAdBgkqhkiG9w0BCQEWEHB1Y2tAZXhh
bXBsZS5jb22CCQCHn8mixlkxozATBgNVHSUEDDAKBggrBgEFBQcDAjALBgNVHQ8E
BAMCB4AwDQYJKoZIhvcNAQELBQADQQBfUIBdLPn0nLTlXP/jDoeit9sfVpUkHxpj
/NdzwIdoX7fCwRewcah71wYNJvk+bzWfVwEWz60+vT1TByh4KZKq
-----END CERTIFICATE-----
