Certificate:
    Data:
        Version: 3 (0x2)
        Serial Number:
            6e:ac:1f:19:79:df:35:d1:4d:9b:c1:fb:19:81:89:5f
        Signature Algorithm: sha256WithRSAEncryption
        Issuer: C=AQ, ST=N/A, L=Delphia, O=PUCK, OU=Crypto Cops, CN=puckasaurus/name=PUCK/emailAddress=puck@example.com
        Validity
            Not Before: Mar 23 22:54:54 2014 GMT
            Not After : Mar 23 22:54:54 2015 GMT
        Subject: C=AQ, ST=N/A, L=Delphia, O=PUCK, OU=Crypto Cops, CN=puckasaurus/name=PUCK/emailAddress=puck@example.com
        Subject Public Key Info:
            Public Key Algorithm: rsaEncryption
            RSA Public Key: (512 bit)
                Modulus (512 bit):
                    00:ca:7e:83:e3:e7:71:90:42:76:7a:8b:8a:8b:31:
                    6d:e9:05:be:9b:cd:6f:3b:87:32:34:4f:25:e0:de:
                    db:96:cb:85:57:7b:a1:0a:1b:05:25:84:f3:7e:52:
                    f8:0b:ca:e0:b6:f6:d2:e0:35:4b:5e:59:46:02:9e:
                    28:ce:6c:5f:ff
                Exponent: 65537 (0x10001)
        X509v3 extensions:
            X509v3 Basic Constraints: 
                CA:FALSE
            Netscape Comment: 
                Easy-RSA Generated Certificate
            X509v3 Subject Key Identifier: 
                F4:40:BA:01:79:9B:0A:99:49:AA:5A:BA:EB:46:EF:C4:1E:C2:06:5D
            X509v3 Authority Key Identifier: 
                keyid:A1:5C:A9:15:A5:9D:FB:5E:BE:F2:72:27:5E:12:34:8B:70:B7:C9:E4
                DirName:/C=AQ/ST=N/A/L=Delphia/O=PUCK/OU=Crypto Cops/CN=puckasaurus/name=PUCK/emailAddress=puck@example.com
                serial:99:FB:1A:A2:B8:34:E0:C8

            X509v3 Extended Key Usage: 
                TLS Web Client Authentication
            X509v3 Key Usage: 
                Digital Signature
    Signature Algorithm: sha256WithRSAEncryption
        2c:3e:f0:fd:6d:14:1c:89:f5:e3:45:5e:74:35:a0:9b:3c:fa:
        7a:ec:05:0f:e2:30:1b:b1:79:70:83:50:ed:06:cc:7c:8e:40:
        04:e4:3d:a2:28:de:e4:ba:9a:29:f0:e5:16:3b:f4:e8:a1:d8:
        e8:7d:bb:36:ad:d6:d3:eb:12:df
-----BEGIN CERTIFICATE-----
MIIDgzCCAy2gAwIBAgIQbqwfGXnfNdFNm8H7GYGJXzANBgkqhkiG9w0BAQsFADCB
mDELMAkGA1UEBhMCQVExDDAKBgNVBAgTA04vQTEQMA4GA1UEBxMHRGVscGhpYTEN
MAsGA1UEChMEUFVDSzEUMBIGA1UECxMLQ3J5cHRvIENvcHMxFDASBgNVBAMTC3B1
Y2thc2F1cnVzMQ0wCwYDVQQpEwRQVUNLMR8wHQYJKoZIhvcNAQkBFhBwdWNrQGV4
YW1wbGUuY29tMB4XDTE0MDMyMzIyNTQ1NFoXDTE1MDMyMzIyNTQ1NFowgZgxCzAJ
BgNVBAYTAkFRMQwwCgYDVQQIEwNOL0ExEDAOBgNVBAcTB0RlbHBoaWExDTALBgNV
BAoTBFBVQ0sxFDASBgNVBAsTC0NyeXB0byBDb3BzMRQwEgYDVQQDEwtwdWNrYXNh
dXJ1czENMAsGA1UEKRMEUFVDSzEfMB0GCSqGSIb3DQEJARYQcHVja0BleGFtcGxl
LmNvbTBcMA0GCSqGSIb3DQEBAQUAA0sAMEgCQQDKfoPj53GQQnZ6i4qLMW3pBb6b
zW87hzI0TyXg3tuWy4VXe6EKGwUlhPN+UvgLyuC29tLgNUteWUYCnijObF//AgMB
AAGjggFPMIIBSzAJBgNVHRMEAjAAMC0GCWCGSAGG+EIBDQQgFh5FYXN5LVJTQSBH
ZW5lcmF0ZWQgQ2VydGlmaWNhdGUwHQYDVR0OBBYEFPRAugF5mwqZSapauutG78Qe
wgZdMIHNBgNVHSMEgcUwgcKAFKFcqRWlnftevvJyJ14SNItwt8nkoYGepIGbMIGY
MQswCQYDVQQGEwJBUTEMMAoGA1UECBMDTi9BMRAwDgYDVQQHEwdEZWxwaGlhMQ0w
CwYDVQQKEwRQVUNLMRQwEgYDVQQLEwtDcnlwdG8gQ29wczEUMBIGA1UEAxMLcHVj
a2FzYXVydXMxDTALBgNVBCkTBFBVQ0sxHzAdBgkqhkiG9w0BCQEWEHB1Y2tAZXhh
bXBsZS5jb22CCQCZ+xqiuDTgyDATBgNVHSUEDDAKBggrBgEFBQcDAjALBgNVHQ8E
BAMCB4AwDQYJKoZIhvcNAQELBQADQQAsPvD9bRQcifXjRV50NaCbPPp67AUP4jAb
sXlwg1DtBsx8jkAE5D2iKN7kupop8OUWO/Toodjofbs2rdbT6xLf
-----END CERTIFICATE-----
