Certificate:
    Data:
        Version: 3 (0x2)
        Serial Number:
            6e:a0:58:00:c8:b8:80:d5:c8:93:73:43:c6:f8:a5:7b
        Signature Algorithm: sha256WithRSAEncryption
        Issuer: C=AQ, ST=N/A, L=Delphia, O=PUCK, OU=Crypto Cops, CN=puckasaurus/name=PUCK/emailAddress=puck@example.com
        Validity
            Not Before: Apr  4 02:27:51 2014 GMT
            Not After : Apr  4 02:27:51 2015 GMT
        Subject: C=AQ, ST=N/A, L=Delphia, O=PUCK, OU=Crypto Cops, CN=puckasaurus/name=PUCK/emailAddress=puck@example.com
        Subject Public Key Info:
            Public Key Algorithm: rsaEncryption
            RSA Public Key: (512 bit)
                Modulus (512 bit):
                    00:9a:02:39:02:fc:7a:6f:c9:58:99:65:80:75:c6:
                    85:5b:8b:e7:c2:ca:86:04:76:5a:b7:9a:7c:bb:cd:
                    aa:c1:7c:ea:91:a8:78:b9:1c:d1:20:17:c0:fe:d4:
                    4d:ff:98:e7:dd:54:f1:9d:75:99:dd:94:39:9b:73:
                    dd:23:74:17:2b
                Exponent: 65537 (0x10001)
        X509v3 extensions:
            X509v3 Basic Constraints: 
                CA:FALSE
            Netscape Comment: 
                Easy-RSA Generated Certificate
            X509v3 Subject Key Identifier: 
                42:1A:76:C4:09:A3:86:B0:99:9E:A9:F2:74:58:11:09:22:E9:D0:90
            X509v3 Authority Key Identifier: 
                keyid:56:E6:EB:85:00:E5:C0:33:7D:55:C8:E2:E1:F7:CF:02:70:BD:16:5F
                DirName:/C=AQ/ST=N/A/L=Delphia/O=PUCK/OU=Crypto Cops/CN=puckasaurus/name=PUCK/emailAddress=puck@example.com
                serial:82:32:17:D3:BB:38:71:A1

            X509v3 Extended Key Usage: 
                TLS Web Client Authentication
            X509v3 Key Usage: 
                Digital Signature
    Signature Algorithm: sha256WithRSAEncryption
        76:22:db:48:05:be:c8:06:53:56:d3:57:49:b6:bb:ae:1c:e8:
        1a:29:3c:fa:fc:b7:54:31:7a:f1:bd:dc:13:b3:2d:19:aa:e7:
        3c:52:15:8f:85:f4:8f:f9:18:5b:3e:e1:8d:cb:06:5c:9a:da:
        5f:96:93:ab:6d:8f:58:4c:cb:1a
-----BEGIN CERTIFICATE-----
MIIDgzCCAy2gAwIBAgIQbqBYAMi4gNXIk3NDxvilezANBgkqhkiG9w0BAQsFADCB
mDELMAkGA1UEBhMCQVExDDAKBgNVBAgTA04vQTEQMA4GA1UEBxMHRGVscGhpYTEN
MAsGA1UEChMEUFVDSzEUMBIGA1UECxMLQ3J5cHRvIENvcHMxFDASBgNVBAMTC3B1
Y2thc2F1cnVzMQ0wCwYDVQQpEwRQVUNLMR8wHQYJKoZIhvcNAQkBFhBwdWNrQGV4
YW1wbGUuY29tMB4XDTE0MDQwNDAyMjc1MVoXDTE1MDQwNDAyMjc1MVowgZgxCzAJ
BgNVBAYTAkFRMQwwCgYDVQQIEwNOL0ExEDAOBgNVBAcTB0RlbHBoaWExDTALBgNV
BAoTBFBVQ0sxFDASBgNVBAsTC0NyeXB0byBDb3BzMRQwEgYDVQQDEwtwdWNrYXNh
dXJ1czENMAsGA1UEKRMEUFVDSzEfMB0GCSqGSIb3DQEJARYQcHVja0BleGFtcGxl
LmNvbTBcMA0GCSqGSIb3DQEBAQUAA0sAMEgCQQCaAjkC/HpvyViZZYB1xoVbi+fC
yoYEdlq3mny7zarBfOqRqHi5HNEgF8D+1E3/mOfdVPGddZndlDmbc90jdBcrAgMB
AAGjggFPMIIBSzAJBgNVHRMEAjAAMC0GCWCGSAGG+EIBDQQgFh5FYXN5LVJTQSBH
ZW5lcmF0ZWQgQ2VydGlmaWNhdGUwHQYDVR0OBBYEFEIadsQJo4awmZ6p8nRYEQki
6dCQMIHNBgNVHSMEgcUwgcKAFFbm64UA5cAzfVXI4uH3zwJwvRZfoYGepIGbMIGY
MQswCQYDVQQGEwJBUTEMMAoGA1UECBMDTi9BMRAwDgYDVQQHEwdEZWxwaGlhMQ0w
CwYDVQQKEwRQVUNLMRQwEgYDVQQLEwtDcnlwdG8gQ29wczEUMBIGA1UEAxMLcHVj
a2FzYXVydXMxDTALBgNVBCkTBFBVQ0sxHzAdBgkqhkiG9w0BCQEWEHB1Y2tAZXhh
bXBsZS5jb22CCQCCMhfTuzhxoTATBgNVHSUEDDAKBggrBgEFBQcDAjALBgNVHQ8E
BAMCB4AwDQYJKoZIhvcNAQELBQADQQB2IttIBb7IBlNW01dJtruuHOgaKTz6/LdU
MXrxvdwTsy0Zquc8UhWPhfSP+RhbPuGNywZcmtpflpOrbY9YTMsa
-----END CERTIFICATE-----
