Certificate:
    Data:
        Version: 3 (0x2)
        Serial Number:
            bf:db:68:fc:12:45:42:51:08:2a:d8:8a:35:4f:f3:c6
        Signature Algorithm: sha256WithRSAEncryption
        Issuer: C=AQ, ST=N/A, L=Delphia, O=PUCK, OU=Crypto Cops, CN=puckasaurus/name=PUCK/emailAddress=puck@example.com
        Validity
            Not Before: Mar 24 11:56:11 2014 GMT
            Not After : Mar 24 11:56:11 2015 GMT
        Subject: C=AQ, ST=N/A, L=Delphia, O=PUCK, OU=Crypto Cops, CN=puckasaurus/name=PUCK/emailAddress=puck@example.com
        Subject Public Key Info:
            Public Key Algorithm: rsaEncryption
            RSA Public Key: (512 bit)
                Modulus (512 bit):
                    00:ad:8d:f4:8d:ae:95:86:54:96:27:1a:0a:0b:ae:
                    fc:5b:93:7e:d9:96:01:b7:8c:37:56:23:a2:72:31:
                    e2:7d:49:9d:f3:d1:b6:1f:c3:3f:22:4a:1c:3c:6c:
                    75:8e:e7:30:31:fc:a2:63:24:70:80:dd:5c:41:37:
                    d0:ce:29:e1:49
                Exponent: 65537 (0x10001)
        X509v3 extensions:
            X509v3 Basic Constraints: 
                CA:FALSE
            Netscape Comment: 
                Easy-RSA Generated Certificate
            X509v3 Subject Key Identifier: 
                7F:3A:CB:E3:F7:02:CC:21:94:BC:FA:CC:FC:D5:42:28:38:11:F8:C2
            X509v3 Authority Key Identifier: 
                keyid:3B:00:56:7B:B8:3A:97:0A:AF:C5:F8:98:B1:0C:08:D5:EA:99:6F:BB
                DirName:/C=AQ/ST=N/A/L=Delphia/O=PUCK/OU=Crypto Cops/CN=puckasaurus/name=PUCK/emailAddress=puck@example.com
                serial:C3:59:00:84:31:15:E2:A5

            X509v3 Extended Key Usage: 
                TLS Web Client Authentication
            X509v3 Key Usage: 
                Digital Signature
    Signature Algorithm: sha256WithRSAEncryption
        37:42:0a:e6:a2:b0:80:3e:a4:ea:d2:ee:32:9b:4f:d4:4e:c9:
        5c:d2:3d:1b:de:0b:61:bf:22:fd:a0:f3:ce:0e:d8:70:79:40:
        55:e1:87:db:ab:7b:e8:e5:24:4d:ea:ba:c4:f7:73:30:bd:86:
        bf:ae:de:c3:94:02:78:95:8b:06
-----BEGIN CERTIFICATE-----
MIIDhDCCAy6gAwIBAgIRAL/baPwSRUJRCCrYijVP88YwDQYJKoZIhvcNAQELBQAw
gZgxCzAJBgNVBAYTAkFRMQwwCgYDVQQIEwNOL0ExEDAOBgNVBAcTB0RlbHBoaWEx
DTALBgNVBAoTBFBVQ0sxFDASBgNVBAsTC0NyeXB0byBDb3BzMRQwEgYDVQQDEwtw
dWNrYXNhdXJ1czENMAsGA1UEKRMEUFVDSzEfMB0GCSqGSIb3DQEJARYQcHVja0Bl
eGFtcGxlLmNvbTAeFw0xNDAzMjQxMTU2MTFaFw0xNTAzMjQxMTU2MTFaMIGYMQsw
CQYDVQQGEwJBUTEMMAoGA1UECBMDTi9BMRAwDgYDVQQHEwdEZWxwaGlhMQ0wCwYD
VQQKEwRQVUNLMRQwEgYDVQQLEwtDcnlwdG8gQ29wczEUMBIGA1UEAxMLcHVja2Fz
YXVydXMxDTALBgNVBCkTBFBVQ0sxHzAdBgkqhkiG9w0BCQEWEHB1Y2tAZXhhbXBs
ZS5jb20wXDANBgkqhkiG9w0BAQEFAANLADBIAkEArY30ja6VhlSWJxoKC678W5N+
2ZYBt4w3ViOicjHifUmd89G2H8M/IkocPGx1jucwMfyiYyRwgN1cQTfQzinhSQID
AQABo4IBTzCCAUswCQYDVR0TBAIwADAtBglghkgBhvhCAQ0EIBYeRWFzeS1SU0Eg
R2VuZXJhdGVkIENlcnRpZmljYXRlMB0GA1UdDgQWBBR/Osvj9wLMIZS8+sz81UIo
OBH4wjCBzQYDVR0jBIHFMIHCgBQ7AFZ7uDqXCq/F+JixDAjV6plvu6GBnqSBmzCB
mDELMAkGA1UEBhMCQVExDDAKBgNVBAgTA04vQTEQMA4GA1UEBxMHRGVscGhpYTEN
MAsGA1UEChMEUFVDSzEUMBIGA1UECxMLQ3J5cHRvIENvcHMxFDASBgNVBAMTC3B1
Y2thc2F1cnVzMQ0wCwYDVQQpEwRQVUNLMR8wHQYJKoZIhvcNAQkBFhBwdWNrQGV4
YW1wbGUuY29tggkAw1kAhDEV4qUwEwYDVR0lBAwwCgYIKwYBBQUHAwIwCwYDVR0P
BAQDAgeAMA0GCSqGSIb3DQEBCwUAA0EAN0IK5qKwgD6k6tLuMptP1E7JXNI9G94L
Yb8i/aDzzg7YcHlAVeGH26t76OUkTeq6xPdzML2Gv67ew5QCeJWLBg==
-----END CERTIFICATE-----
