Certificate:
    Data:
        Version: 3 (0x2)
        Serial Number:
            41:f6:4e:fc:2b:ad:39:2e:fc:e7:46:c2:d6:d6:20:b1
        Signature Algorithm: sha256WithRSAEncryption
        Issuer: C=AQ, ST=N/A, L=Delphia, O=PUCK, OU=Crypto Cops, CN=puckasaurus/name=PUCK/emailAddress=puck@example.com
        Validity
            Not Before: Mar 23 22:39:36 2014 GMT
            Not After : Mar 23 22:39:36 2015 GMT
        Subject: C=AQ, ST=N/A, L=Delphia, O=PUCK, OU=Crypto Cops, CN=puckasaurus/name=PUCK/emailAddress=puck@example.com
        Subject Public Key Info:
            Public Key Algorithm: rsaEncryption
            RSA Public Key: (512 bit)
                Modulus (512 bit):
                    00:ac:5f:1d:69:34:99:15:b1:df:86:e3:e7:f7:60:
                    db:31:55:7c:a1:97:04:dd:17:f4:32:ba:42:a1:4c:
                    8f:3f:37:be:0c:99:b6:9d:77:38:c9:b5:16:9e:1f:
                    b2:55:95:4b:fe:cc:5b:f6:c1:cf:33:a7:09:cc:6e:
                    53:5c:8f:cc:5b
                Exponent: 65537 (0x10001)
        X509v3 extensions:
            X509v3 Basic Constraints: 
                CA:FALSE
            Netscape Comment: 
                Easy-RSA Generated Certificate
            X509v3 Subject Key Identifier: 
                12:F3:3C:09:84:B2:F6:E8:05:A9:9E:C2:4C:A6:A0:C8:4B:D9:69:14
            X509v3 Authority Key Identifier: 
                keyid:B5:7C:B9:CE:90:3F:9C:9E:59:D8:66:97:EF:E9:E8:84:EF:3C:6F:30
                DirName:/C=AQ/ST=N/A/L=Delphia/O=PUCK/OU=Crypto Cops/CN=puckasaurus/name=PUCK/emailAddress=puck@example.com
                serial:E2:E1:B9:69:A8:4F:0D:7C

            X509v3 Extended Key Usage: 
                TLS Web Client Authentication
            X509v3 Key Usage: 
                Digital Signature
    Signature Algorithm: sha256WithRSAEncryption
        c1:e6:e4:c6:6a:39:f9:0b:2c:c6:1c:d5:82:05:22:61:ce:9e:
        1b:6d:44:a9:6e:85:f4:e8:1b:ef:d3:b1:aa:78:e6:b0:e2:30:
        88:c6:3b:78:7b:f0:09:4b:1d:f8:1a:f2:f3:0a:15:14:28:45:
        14:9e:21:c5:86:51:5c:42:34:20
-----BEGIN CERTIFICATE-----
MIIDgzCCAy2gAwIBAgIQQfZO/CutOS7850bC1tYgsTANBgkqhkiG9w0BAQsFADCB
mDELMAkGA1UEBhMCQVExDDAKBgNVBAgTA04vQTEQMA4GA1UEBxMHRGVscGhpYTEN
MAsGA1UEChMEUFVDSzEUMBIGA1UECxMLQ3J5cHRvIENvcHMxFDASBgNVBAMTC3B1
Y2thc2F1cnVzMQ0wCwYDVQQpEwRQVUNLMR8wHQYJKoZIhvcNAQkBFhBwdWNrQGV4
YW1wbGUuY29tMB4XDTE0MDMyMzIyMzkzNloXDTE1MDMyMzIyMzkzNlowgZgxCzAJ
BgNVBAYTAkFRMQwwCgYDVQQIEwNOL0ExEDAOBgNVBAcTB0RlbHBoaWExDTALBgNV
BAoTBFBVQ0sxFDASBgNVBAsTC0NyeXB0byBDb3BzMRQwEgYDVQQDEwtwdWNrYXNh
dXJ1czENMAsGA1UEKRMEUFVDSzEfMB0GCSqGSIb3DQEJARYQcHVja0BleGFtcGxl
LmNvbTBcMA0GCSqGSIb3DQEBAQUAA0sAMEgCQQCsXx1pNJkVsd+G4+f3YNsxVXyh
lwTdF/QyukKhTI8/N74MmbaddzjJtRaeH7JVlUv+zFv2wc8zpwnMblNcj8xbAgMB
AAGjggFPMIIBSzAJBgNVHRMEAjAAMC0GCWCGSAGG+EIBDQQgFh5FYXN5LVJTQSBH
ZW5lcmF0ZWQgQ2VydGlmaWNhdGUwHQYDVR0OBBYEFBLzPAmEsvboBamewkymoMhL
2WkUMIHNBgNVHSMEgcUwgcKAFLV8uc6QP5yeWdhml+/p6ITvPG8woYGepIGbMIGY
MQswCQYDVQQGEwJBUTEMMAoGA1UECBMDTi9BMRAwDgYDVQQHEwdEZWxwaGlhMQ0w
CwYDVQQKEwRQVUNLMRQwEgYDVQQLEwtDcnlwdG8gQ29wczEUMBIGA1UEAxMLcHVj
a2FzYXVydXMxDTALBgNVBCkTBFBVQ0sxHzAdBgkqhkiG9w0BCQEWEHB1Y2tAZXhh
bXBsZS5jb22CCQDi4blpqE8NfDATBgNVHSUEDDAKBggrBgEFBQcDAjALBgNVHQ8E
BAMCB4AwDQYJKoZIhvcNAQELBQADQQDB5uTGajn5CyzGHNWCBSJhzp4bbUSpboX0
6Bvv07GqeOaw4jCIxjt4e/AJSx34GvLzChUUKEUUniHFhlFcQjQg
-----END CERTIFICATE-----
