Certificate:
    Data:
        Version: 3 (0x2)
        Serial Number:
            8b:77:f2:19:7a:db:de:3d:9a:fc:51:53:eb:80:7a:3f
        Signature Algorithm: sha256WithRSAEncryption
        Issuer: C=AQ, ST=White, L=D3cktown, O=D3ckasaurusRex, CN=*
        Validity
            Not Before: Jul 21 15:45:39 2014 GMT
            Not After : Jul 21 15:45:39 2015 GMT
        Subject: C=AQ, ST=White, L=D3cktown, O=D3ckasaurusRex, CN=*
        Subject Public Key Info:
            Public Key Algorithm: rsaEncryption
            RSA Public Key: (1024 bit)
                Modulus (1024 bit):
                    00:ae:1f:40:ed:5a:d4:3b:71:40:5a:23:3f:f5:b5:
                    8b:2a:68:bb:cb:aa:0c:5d:7d:08:c6:ec:3f:f0:d4:
                    44:90:64:6e:30:26:f3:c0:bf:c9:13:ef:ba:17:ce:
                    4f:c1:d5:fa:65:ff:22:e1:7c:2b:af:b3:b6:9e:b1:
                    3a:ed:e7:6b:f3:2e:be:b6:02:ca:01:14:f5:c4:5a:
                    0d:a6:ad:ab:aa:1b:37:21:99:8c:5e:d7:1f:59:f8:
                    40:c4:76:e0:98:7f:80:41:54:cd:ef:d6:85:3d:5e:
                    45:68:e9:06:27:93:e3:6f:0e:39:eb:d1:bc:84:86:
                    93:98:d1:fa:c5:d3:fa:fd:5b
                Exponent: 65537 (0x10001)
        X509v3 extensions:
            X509v3 Basic Constraints: 
                CA:FALSE
            Netscape Comment: 
                d3ck certz with retsin
            X509v3 Subject Key Identifier: 
                70:32:20:10:1B:07:EC:5C:DC:1C:FF:F7:C3:E2:79:5A:C8:CE:FB:9A
            X509v3 Authority Key Identifier: 
                keyid:2A:1F:D2:8C:1B:D0:06:AC:5F:7E:37:1F:91:80:BC:AA:52:55:1D:6C
                DirName:/C=AQ/ST=White/L=D3cktown/O=D3ckasaurusRex/CN=*
                serial:B2:D9:97:8A:79:31:CC:D6

    Signature Algorithm: sha256WithRSAEncryption
        21:41:e4:a5:58:a0:a3:13:8b:d0:f2:6f:2d:fe:48:25:c7:28:
        6a:9b:cc:e1:b7:07:b5:d1:a8:1d:cf:5b:93:73:53:1b:7e:3e:
        1a:34:02:85:c0:64:34:d6:d9:c9:65:bb:87:c8:9d:3c:3a:19:
        99:bd:a6:3a:48:d8:e4:f1:91:a3:0c:f3:1f:6e:78:0b:c6:e4:
        3f:0e:9e:dd:82:83:59:1c:9a:68:20:6a:30:98:41:20:bf:92:
        c5:0d:75:67:39:69:30:a7:05:ad:da:46:51:40:9f:71:1e:e4:
        f7:70:ca:cb:86:89:4f:99:ac:3d:86:dc:8c:46:4b:b7:4a:d0:
        23:51
-----BEGIN CERTIFICATE-----
MIIDDTCCAnagAwIBAgIRAIt38hl62949mvxRU+uAej8wDQYJKoZIhvcNAQELBQAw
VTELMAkGA1UEBhMCQVExDjAMBgNVBAgTBVdoaXRlMREwDwYDVQQHEwhEM2NrdG93
bjEXMBUGA1UEChMORDNja2FzYXVydXNSZXgxCjAIBgNVBAMUASowHhcNMTQwNzIx
MTU0NTM5WhcNMTUwNzIxMTU0NTM5WjBVMQswCQYDVQQGEwJBUTEOMAwGA1UECBMF
V2hpdGUxETAPBgNVBAcTCEQzY2t0b3duMRcwFQYDVQQKEw5EM2NrYXNhdXJ1c1Jl
eDEKMAgGA1UEAxQBKjCBnzANBgkqhkiG9w0BAQEFAAOBjQAwgYkCgYEArh9A7VrU
O3FAWiM/9bWLKmi7y6oMXX0Ixuw/8NREkGRuMCbzwL/JE++6F85PwdX6Zf8i4Xwr
r7O2nrE67edr8y6+tgLKART1xFoNpq2rqhs3IZmMXtcfWfhAxHbgmH+AQVTN79aF
PV5FaOkGJ5Pjbw4569G8hIaTmNH6xdP6/VsCAwEAAaOB3DCB2TAJBgNVHRMEAjAA
MCUGCWCGSAGG+EIBDQQYFhZkM2NrIGNlcnR6IHdpdGggcmV0c2luMB0GA1UdDgQW
BBRwMiAQGwfsXNwc//fD4nlayM77mjCBhQYDVR0jBH4wfIAUKh/SjBvQBqxffjcf
kYC8qlJVHWyhWaRXMFUxCzAJBgNVBAYTAkFRMQ4wDAYDVQQIEwVXaGl0ZTERMA8G
A1UEBxMIRDNja3Rvd24xFzAVBgNVBAoTDkQzY2thc2F1cnVzUmV4MQowCAYDVQQD
FAEqggkAstmXinkxzNYwDQYJKoZIhvcNAQELBQADgYEAIUHkpVigoxOL0PJvLf5I
JccoapvM4bcHtdGoHc9bk3NTG34+GjQChcBkNNbZyWW7h8idPDoZmb2mOkjY5PGR
owzzH254C8bkPw6e3YKDWRyaaCBqMJhBIL+SxQ11ZzlpMKcFrdpGUUCfcR7k93DK
y4aJT5msPYbcjEZLt0rQI1E=
-----END CERTIFICATE-----
