Certificate:
    Data:
        Version: 3 (0x2)
        Serial Number:
            04:a1:8f:08:e5:37:b3:ec:d4:b6:c0:8c:ab:79:8b:10
        Signature Algorithm: sha256WithRSAEncryption
        Issuer: C=AQ, ST=White, L=D3cktown, O=D3ckasaurusRex, CN=*
        Validity
            Not Before: Aug 18 00:28:02 2014 GMT
            Not After : Aug 18 00:28:02 2015 GMT
        Subject: C=AQ, ST=White, L=D3cktown, O=D3ckasaurusRex, CN=*
        Subject Public Key Info:
            Public Key Algorithm: rsaEncryption
            RSA Public Key: (1024 bit)
                Modulus (1024 bit):
                    00:dd:82:99:d8:ea:fd:24:80:a5:1b:c3:bc:a1:af:
                    0b:f1:e4:58:cb:de:7a:88:8e:98:00:ee:00:7c:5f:
                    ee:af:54:1a:d4:57:47:a0:b5:d4:61:7a:7d:b2:dd:
                    db:52:95:c6:6e:94:d0:e3:12:00:5c:b6:36:e0:eb:
                    49:be:ca:b8:12:73:7b:d8:1c:05:d7:a8:66:3a:df:
                    e0:e6:55:3e:50:4e:c6:5e:35:30:98:7e:39:62:2e:
                    c2:cd:9e:41:77:8d:ae:7c:17:e5:ec:1b:36:82:81:
                    de:2f:78:2e:dc:65:3f:a7:90:85:27:a4:2b:7c:f7:
                    5f:0d:65:24:9f:0a:dc:03:b5
                Exponent: 65537 (0x10001)
        X509v3 extensions:
            X509v3 Basic Constraints: 
                CA:FALSE
            Netscape Comment: 
                d3ck certz with retsin
            X509v3 Subject Key Identifier: 
                7E:4D:7A:5D:D3:6D:51:C8:A6:FB:22:39:C4:ED:3B:76:E2:08:06:EA
            X509v3 Authority Key Identifier: 
                keyid:8A:BC:D8:AE:BE:CF:69:AA:D9:0E:4F:41:B0:2E:7E:E1:FC:29:39:65
                DirName:/C=AQ/ST=White/L=D3cktown/O=D3ckasaurusRex/CN=*
                serial:CC:0A:2A:5E:F3:81:DE:EE

    Signature Algorithm: sha256WithRSAEncryption
        27:d1:e7:72:8b:3b:41:37:f7:89:24:59:8f:9a:d8:14:ad:30:
        dd:42:d3:4e:0b:d5:05:9a:23:4b:44:0c:3c:99:9d:fc:78:1f:
        8c:90:64:8d:40:13:2f:d5:f0:ad:09:f8:1d:12:27:da:d5:b4:
        b2:4a:f0:c9:ed:55:e7:74:2b:c8:0f:cb:aa:8d:c4:da:c3:8b:
        d8:e2:cf:5b:aa:2e:ea:e6:ed:91:ff:38:2d:3a:e4:41:e2:16:
        53:68:45:85:2d:d8:0c:ed:73:70:27:98:15:d5:c9:07:76:2a:
        25:b3:29:1c:b9:62:14:e3:0d:d9:c7:4e:3d:98:99:8b:96:b7:
        49:e2
-----BEGIN CERTIFICATE-----
MIIDDDCCAnWgAwIBAgIQBKGPCOU3s+zUtsCMq3mLEDANBgkqhkiG9w0BAQsFADBV
MQswCQYDVQQGEwJBUTEOMAwGA1UECBMFV2hpdGUxETAPBgNVBAcTCEQzY2t0b3du
MRcwFQYDVQQKEw5EM2NrYXNhdXJ1c1JleDEKMAgGA1UEAxQBKjAeFw0xNDA4MTgw
MDI4MDJaFw0xNTA4MTgwMDI4MDJaMFUxCzAJBgNVBAYTAkFRMQ4wDAYDVQQIEwVX
aGl0ZTERMA8GA1UEBxMIRDNja3Rvd24xFzAVBgNVBAoTDkQzY2thc2F1cnVzUmV4
MQowCAYDVQQDFAEqMIGfMA0GCSqGSIb3DQEBAQUAA4GNADCBiQKBgQDdgpnY6v0k
gKUbw7yhrwvx5FjL3nqIjpgA7gB8X+6vVBrUV0egtdRhen2y3dtSlcZulNDjEgBc
tjbg60m+yrgSc3vYHAXXqGY63+DmVT5QTsZeNTCYfjliLsLNnkF3ja58F+XsGzaC
gd4veC7cZT+nkIUnpCt8918NZSSfCtwDtQIDAQABo4HcMIHZMAkGA1UdEwQCMAAw
JQYJYIZIAYb4QgENBBgWFmQzY2sgY2VydHogd2l0aCByZXRzaW4wHQYDVR0OBBYE
FH5Nel3TbVHIpvsiOcTtO3biCAbqMIGFBgNVHSMEfjB8gBSKvNiuvs9pqtkOT0Gw
Ln7h/Ck5ZaFZpFcwVTELMAkGA1UEBhMCQVExDjAMBgNVBAgTBVdoaXRlMREwDwYD
VQQHEwhEM2NrdG93bjEXMBUGA1UEChMORDNja2FzYXVydXNSZXgxCjAIBgNVBAMU
ASqCCQDMCipe84He7jANBgkqhkiG9w0BAQsFAAOBgQAn0edyiztBN/eJJFmPmtgU
rTDdQtNOC9UFmiNLRAw8mZ38eB+MkGSNQBMv1fCtCfgdEifa1bSySvDJ7VXndCvI
D8uqjcTaw4vY4s9bqi7q5u2R/zgtOuRB4hZTaEWFLdgM7XNwJ5gV1ckHdiolsykc
uWIU4w3Zx049mJmLlrdJ4g==
-----END CERTIFICATE-----
