Certificate:
    Data:
        Version: 3 (0x2)
        Serial Number:
            e3:9a:02:1e:18:4f:a5:3c:76:1d:02:36:77:eb:41:ef
        Signature Algorithm: sha256WithRSAEncryption
        Issuer: C=AQ, ST=White, L=D3cktown, O=D3ckasaurusRex, CN=*
        Validity
            Not Before: Jul 17 21:21:47 2014 GMT
            Not After : Jul 17 21:21:47 2015 GMT
        Subject: C=AQ, ST=White, L=D3cktown, O=D3ckasaurusRex, CN=*
        Subject Public Key Info:
            Public Key Algorithm: rsaEncryption
            RSA Public Key: (1024 bit)
                Modulus (1024 bit):
                    00:c5:58:68:c7:99:10:68:dc:2b:1e:7d:6d:51:23:
                    0d:21:d8:b1:43:36:03:0a:bb:fd:39:e7:d2:3a:ed:
                    3f:45:c1:ba:d7:74:ee:8f:69:1b:19:b2:ce:f0:26:
                    69:44:ae:01:f1:7d:bf:1b:6c:a6:f0:09:6e:51:d0:
                    8b:44:a4:b1:8e:74:55:9c:48:6d:6d:47:38:1c:69:
                    6a:ff:13:c9:f8:ac:a3:25:99:f4:ed:6a:a9:cb:69:
                    0b:41:95:fb:ce:af:91:6d:4d:01:a0:cd:10:df:77:
                    07:01:37:62:79:3d:b7:21:d2:2d:56:7e:0c:37:e2:
                    ba:44:db:c2:bc:21:f5:c1:4b
                Exponent: 65537 (0x10001)
        X509v3 extensions:
            X509v3 Basic Constraints: 
                CA:FALSE
            Netscape Comment: 
                d3ck certz with retsin
            X509v3 Subject Key Identifier: 
                12:DC:CD:89:6D:37:CA:74:6D:C2:60:E0:7B:33:9D:8C:A2:C1:24:3A
            X509v3 Authority Key Identifier: 
                keyid:1A:6A:7F:92:A4:ED:52:A0:70:5E:C3:E9:CE:A0:B4:6D:66:79:B7:51
                DirName:/C=AQ/ST=White/L=D3cktown/O=D3ckasaurusRex/CN=*
                serial:80:15:04:E3:24:9C:FA:5A

    Signature Algorithm: sha256WithRSAEncryption
        7a:49:ce:2f:24:d2:21:ef:30:bd:a1:6b:0c:51:a9:c9:9b:5d:
        31:c2:64:d8:28:52:4c:e9:e2:39:a1:e5:3a:e7:c4:1b:af:e4:
        93:69:de:bc:6e:85:80:5d:3a:b8:f7:ab:54:98:9e:68:92:f0:
        4a:86:ac:90:ac:6f:05:a2:16:20:3b:99:f6:be:50:a1:a6:40:
        5a:fa:74:0b:65:c2:0d:f9:0f:2c:95:75:d7:ce:93:b2:d3:05:
        d7:ad:eb:20:f8:f9:ff:4e:58:a2:e0:a0:b0:6d:31:11:14:4b:
        c0:58:61:0a:6e:89:15:23:82:b1:dc:77:f0:18:0f:41:c4:73:
        6c:64
-----BEGIN CERTIFICATE-----
MIIDDTCCAnagAwIBAgIRAOOaAh4YT6U8dh0CNnfrQe8wDQYJKoZIhvcNAQELBQAw
VTELMAkGA1UEBhMCQVExDjAMBgNVBAgTBVdoaXRlMREwDwYDVQQHEwhEM2NrdG93
bjEXMBUGA1UEChMORDNja2FzYXVydXNSZXgxCjAIBgNVBAMUASowHhcNMTQwNzE3
MjEyMTQ3WhcNMTUwNzE3MjEyMTQ3WjBVMQswCQYDVQQGEwJBUTEOMAwGA1UECBMF
V2hpdGUxETAPBgNVBAcTCEQzY2t0b3duMRcwFQYDVQQKEw5EM2NrYXNhdXJ1c1Jl
eDEKMAgGA1UEAxQBKjCBnzANBgkqhkiG9w0BAQEFAAOBjQAwgYkCgYEAxVhox5kQ
aNwrHn1tUSMNIdixQzYDCrv9OefSOu0/RcG613Tuj2kbGbLO8CZpRK4B8X2/G2ym
8AluUdCLRKSxjnRVnEhtbUc4HGlq/xPJ+KyjJZn07Wqpy2kLQZX7zq+RbU0BoM0Q
33cHATdieT23IdItVn4MN+K6RNvCvCH1wUsCAwEAAaOB3DCB2TAJBgNVHRMEAjAA
MCUGCWCGSAGG+EIBDQQYFhZkM2NrIGNlcnR6IHdpdGggcmV0c2luMB0GA1UdDgQW
BBQS3M2JbTfKdG3CYOB7M52MosEkOjCBhQYDVR0jBH4wfIAUGmp/kqTtUqBwXsPp
zqC0bWZ5t1GhWaRXMFUxCzAJBgNVBAYTAkFRMQ4wDAYDVQQIEwVXaGl0ZTERMA8G
A1UEBxMIRDNja3Rvd24xFzAVBgNVBAoTDkQzY2thc2F1cnVzUmV4MQowCAYDVQQD
FAEqggkAgBUE4ySc+lowDQYJKoZIhvcNAQELBQADgYEAeknOLyTSIe8wvaFrDFGp
yZtdMcJk2ChSTOniOaHlOufEG6/kk2nevG6FgF06uPerVJieaJLwSoaskKxvBaIW
IDuZ9r5QoaZAWvp0C2XCDfkPLJV1186TstMF163rIPj5/05YouCgsG0xERRLwFhh
Cm6JFSOCsdx38BgPQcRzbGQ=
-----END CERTIFICATE-----
