Certificate:
    Data:
        Version: 3 (0x2)
        Serial Number:
            cf:b6:2e:e0:d6:18:80:f4:f3:c1:71:8d:47:e6:9d:a3
        Signature Algorithm: sha256WithRSAEncryption
        Issuer: C=AQ, ST=White, L=D3cktown, O=D3ckasaurusRex, CN=*
        Validity
            Not Before: Jul 30 01:38:23 2014 GMT
            Not After : Jul 30 01:38:23 2015 GMT
        Subject: C=AQ, ST=White, L=D3cktown, O=D3ckasaurusRex, CN=*
        Subject Public Key Info:
            Public Key Algorithm: rsaEncryption
            RSA Public Key: (1024 bit)
                Modulus (1024 bit):
                    00:c4:21:69:02:86:ae:94:61:bf:10:60:81:13:bc:
                    79:4d:b7:59:9d:cf:be:21:1d:df:e2:1e:b1:0a:0f:
                    4c:3c:60:a8:d8:27:3f:3c:1c:ac:e8:ec:3a:c3:57:
                    ee:51:f4:66:08:db:92:4d:2c:ec:f2:4a:c3:5e:b3:
                    22:8c:c3:32:b7:da:4e:8d:43:f8:08:3d:90:e9:99:
                    81:24:c0:55:f9:1d:e5:35:1e:f6:68:a1:24:fa:51:
                    af:9c:86:86:8f:2a:ee:f8:c8:2d:9e:08:4d:1e:8e:
                    75:fb:25:7c:a2:ce:eb:00:43:00:47:7e:86:24:b1:
                    5a:4f:73:e6:22:76:61:49:b9
                Exponent: 65537 (0x10001)
        X509v3 extensions:
            X509v3 Basic Constraints: 
                CA:FALSE
            Netscape Comment: 
                d3ck certz with retsin
            X509v3 Subject Key Identifier: 
                C9:97:26:6B:79:C2:34:68:05:4E:46:7B:F2:3C:DE:43:48:C3:4D:9B
            X509v3 Authority Key Identifier: 
                keyid:1E:B3:BB:54:84:5E:AC:7C:88:1C:0E:D3:5E:F9:B6:87:0D:1E:F8:B1
                DirName:/C=AQ/ST=White/L=D3cktown/O=D3ckasaurusRex/CN=*
                serial:E7:DC:A1:AD:92:62:57:7A

    Signature Algorithm: sha256WithRSAEncryption
        96:e4:0a:d9:94:38:0d:db:1c:b8:07:60:e3:96:30:5c:78:1b:
        b0:e9:4c:11:fe:ac:43:7c:89:8d:2e:b4:58:85:1a:52:28:60:
        6c:fe:a3:24:b2:6b:19:bc:39:32:72:62:93:1d:8b:79:18:38:
        9d:4c:0b:d1:c0:6e:ad:53:31:a5:f4:af:01:e5:3e:20:b0:62:
        06:e3:84:43:ac:0c:49:00:db:c1:c5:b0:a4:60:49:da:dd:c6:
        1b:7e:d2:03:4e:c9:91:09:3e:17:e3:2e:2b:77:4e:52:25:a6:
        f8:2c:c2:56:04:10:3e:7e:97:90:46:6b:60:b5:bc:7c:20:e7:
        2f:75
-----BEGIN CERTIFICATE-----
MIIDDTCCAnagAwIBAgIRAM+2LuDWGID088FxjUfmnaMwDQYJKoZIhvcNAQELBQAw
VTELMAkGA1UEBhMCQVExDjAMBgNVBAgTBVdoaXRlMREwDwYDVQQHEwhEM2NrdG93
bjEXMBUGA1UEChMORDNja2FzYXVydXNSZXgxCjAIBgNVBAMUASowHhcNMTQwNzMw
MDEzODIzWhcNMTUwNzMwMDEzODIzWjBVMQswCQYDVQQGEwJBUTEOMAwGA1UECBMF
V2hpdGUxETAPBgNVBAcTCEQzY2t0b3duMRcwFQYDVQQKEw5EM2NrYXNhdXJ1c1Jl
eDEKMAgGA1UEAxQBKjCBnzANBgkqhkiG9w0BAQEFAAOBjQAwgYkCgYEAxCFpAoau
lGG/EGCBE7x5TbdZnc++IR3f4h6xCg9MPGCo2Cc/PBys6Ow6w1fuUfRmCNuSTSzs
8krDXrMijMMyt9pOjUP4CD2Q6ZmBJMBV+R3lNR72aKEk+lGvnIaGjyru+MgtnghN
Ho51+yV8os7rAEMAR36GJLFaT3PmInZhSbkCAwEAAaOB3DCB2TAJBgNVHRMEAjAA
MCUGCWCGSAGG+EIBDQQYFhZkM2NrIGNlcnR6IHdpdGggcmV0c2luMB0GA1UdDgQW
BBTJlyZrecI0aAVORnvyPN5DSMNNmzCBhQYDVR0jBH4wfIAUHrO7VIRerHyIHA7T
Xvm2hw0e+LGhWaRXMFUxCzAJBgNVBAYTAkFRMQ4wDAYDVQQIEwVXaGl0ZTERMA8G
A1UEBxMIRDNja3Rvd24xFzAVBgNVBAoTDkQzY2thc2F1cnVzUmV4MQowCAYDVQQD
FAEqggkA59yhrZJiV3owDQYJKoZIhvcNAQELBQADgYEAluQK2ZQ4DdscuAdg45Yw
XHgbsOlMEf6sQ3yJjS60WIUaUihgbP6jJLJrGbw5MnJikx2LeRg4nUwL0cBurVMx
pfSvAeU+ILBiBuOEQ6wMSQDbwcWwpGBJ2t3GG37SA07JkQk+F+MuK3dOUiWm+CzC
VgQQPn6XkEZrYLW8fCDnL3U=
-----END CERTIFICATE-----
