Certificate:
    Data:
        Version: 3 (0x2)
        Serial Number:
            6e:27:ca:e3:53:95:d2:3e:4a:33:30:b3:4f:0c:4f:2a
        Signature Algorithm: sha256WithRSAEncryption
        Issuer: C=AQ, ST=White, L=D3cktown, O=D3ckasaurusRex, CN=*
        Validity
            Not Before: Jul 17 20:51:49 2014 GMT
            Not After : Jul 17 20:51:49 2015 GMT
        Subject: C=AQ, ST=White, L=D3cktown, O=D3ckasaurusRex, CN=*
        Subject Public Key Info:
            Public Key Algorithm: rsaEncryption
            RSA Public Key: (1024 bit)
                Modulus (1024 bit):
                    00:aa:15:4c:9e:14:5a:7d:c8:cf:35:0d:6e:a8:1d:
                    f5:a9:0e:18:40:2d:00:76:29:3d:b3:93:1d:47:48:
                    5d:75:55:0c:e5:2d:95:12:07:eb:4b:21:64:77:30:
                    20:c2:91:ce:8c:a6:69:e9:d9:85:e8:7d:4f:a2:aa:
                    a2:4d:8f:57:3f:c7:33:6b:bb:14:d2:15:ba:23:26:
                    88:48:fa:c6:2c:4f:0d:46:62:ca:32:88:60:1a:57:
                    cb:92:bc:b6:59:5c:cc:44:fb:f4:10:83:49:6c:ca:
                    4b:ca:52:62:56:f2:f4:cb:a0:5d:bc:95:3c:64:ea:
                    28:c9:da:46:7e:a6:e8:39:17
                Exponent: 65537 (0x10001)
        X509v3 extensions:
            X509v3 Basic Constraints: 
                CA:FALSE
            Netscape Comment: 
                d3ck certz with retsin
            X509v3 Subject Key Identifier: 
                9B:E7:EC:56:00:47:FB:FE:94:FB:4F:B5:13:5F:16:17:13:43:FD:88
            X509v3 Authority Key Identifier: 
                keyid:67:20:D9:7D:D0:3B:91:7E:E1:AA:90:BF:9B:FE:7C:FC:8A:69:93:BF
                DirName:/C=AQ/ST=White/L=D3cktown/O=D3ckasaurusRex/CN=*
                serial:D2:F9:3E:B8:9E:0D:F9:20

    Signature Algorithm: sha256WithRSAEncryption
        91:d4:12:4f:0e:05:88:e8:50:c3:b6:31:85:2b:94:a2:1e:2c:
        24:76:8b:fd:51:d0:57:df:39:46:a5:09:21:56:59:02:07:b0:
        cd:42:6c:ea:15:fa:36:b7:ef:aa:f1:49:96:84:86:55:fa:b3:
        0c:c5:f2:99:a6:89:d4:23:40:74:7a:e9:de:22:ef:b6:d6:6c:
        91:66:a6:f2:31:b1:07:9c:9c:55:63:56:fa:97:c6:96:c8:cd:
        b9:16:99:6f:a7:0d:db:6b:56:9b:80:51:1d:06:7d:97:ad:bf:
        f8:4b:a0:99:72:ee:37:db:a6:e4:c5:0a:06:ca:5b:48:a9:8c:
        65:d2
-----BEGIN CERTIFICATE-----
MIIDDDCCAnWgAwIBAgIQbifK41OV0j5KMzCzTwxPKjANBgkqhkiG9w0BAQsFADBV
MQswCQYDVQQGEwJBUTEOMAwGA1UECBMFV2hpdGUxETAPBgNVBAcTCEQzY2t0b3du
MRcwFQYDVQQKEw5EM2NrYXNhdXJ1c1JleDEKMAgGA1UEAxQBKjAeFw0xNDA3MTcy
MDUxNDlaFw0xNTA3MTcyMDUxNDlaMFUxCzAJBgNVBAYTAkFRMQ4wDAYDVQQIEwVX
aGl0ZTERMA8GA1UEBxMIRDNja3Rvd24xFzAVBgNVBAoTDkQzY2thc2F1cnVzUmV4
MQowCAYDVQQDFAEqMIGfMA0GCSqGSIb3DQEBAQUAA4GNADCBiQKBgQCqFUyeFFp9
yM81DW6oHfWpDhhALQB2KT2zkx1HSF11VQzlLZUSB+tLIWR3MCDCkc6Mpmnp2YXo
fU+iqqJNj1c/xzNruxTSFbojJohI+sYsTw1GYsoyiGAaV8uSvLZZXMxE+/QQg0ls
ykvKUmJW8vTLoF28lTxk6ijJ2kZ+pug5FwIDAQABo4HcMIHZMAkGA1UdEwQCMAAw
JQYJYIZIAYb4QgENBBgWFmQzY2sgY2VydHogd2l0aCByZXRzaW4wHQYDVR0OBBYE
FJvn7FYAR/v+lPtPtRNfFhcTQ/2IMIGFBgNVHSMEfjB8gBRnINl90DuRfuGqkL+b
/nz8immTv6FZpFcwVTELMAkGA1UEBhMCQVExDjAMBgNVBAgTBVdoaXRlMREwDwYD
VQQHEwhEM2NrdG93bjEXMBUGA1UEChMORDNja2FzYXVydXNSZXgxCjAIBgNVBAMU
ASqCCQDS+T64ng35IDANBgkqhkiG9w0BAQsFAAOBgQCR1BJPDgWI6FDDtjGFK5Si
Hiwkdov9UdBX3zlGpQkhVlkCB7DNQmzqFfo2t++q8UmWhIZV+rMMxfKZponUI0B0
euneIu+21myRZqbyMbEHnJxVY1b6l8aWyM25Fplvpw3ba1abgFEdBn2Xrb/4S6CZ
cu4326bkxQoGyltIqYxl0g==
-----END CERTIFICATE-----
