Certificate:
    Data:
        Version: 3 (0x2)
        Serial Number:
            f4:ff:35:69:cb:3a:e3:0b:42:2a:30:3d:5c:7f:38:e4
        Signature Algorithm: sha256WithRSAEncryption
        Issuer: C=AQ, ST=White, L=D3cktown, O=D3ckasaurusRex, CN=*
        Validity
            Not Before: Jul 21 17:10:00 2014 GMT
            Not After : Jul 21 17:10:00 2015 GMT
        Subject: C=AQ, ST=White, L=D3cktown, O=D3ckasaurusRex, CN=*
        Subject Public Key Info:
            Public Key Algorithm: rsaEncryption
            RSA Public Key: (1024 bit)
                Modulus (1024 bit):
                    00:ed:b2:a7:a4:35:b4:b0:39:e4:c8:98:c1:cc:8a:
                    3a:fe:2f:ff:55:59:32:15:90:ef:f5:b2:d4:17:88:
                    a5:74:c4:2f:db:9e:54:6c:c0:dd:77:e8:a3:d9:d2:
                    c6:34:d6:c7:19:e1:d5:d3:47:e0:ed:51:45:c0:b3:
                    97:c7:08:79:ee:eb:2a:7c:90:cc:99:b8:cd:b7:7a:
                    99:cd:2d:f5:b1:1b:1e:64:70:15:8c:b2:ec:b8:25:
                    f4:6d:0d:fd:eb:55:d8:a1:a1:40:64:a6:34:e2:0b:
                    68:31:0a:9f:67:0a:b9:60:49:8c:00:94:7b:27:ca:
                    fb:78:db:45:7a:a7:c9:38:03
                Exponent: 65537 (0x10001)
        X509v3 extensions:
            X509v3 Basic Constraints: 
                CA:FALSE
            Netscape Comment: 
                d3ck certz with retsin
            X509v3 Subject Key Identifier: 
                B5:6E:E6:6C:7F:AE:84:8F:AB:7D:9C:5C:13:BB:64:CD:69:FB:9C:9C
            X509v3 Authority Key Identifier: 
                keyid:FB:E7:55:03:FB:70:5F:AC:5F:0D:B3:A2:82:DD:BD:C5:BD:BC:00:5C
                DirName:/C=AQ/ST=White/L=D3cktown/O=D3ckasaurusRex/CN=*
                serial:FE:C2:A7:7F:DD:15:92:23

    Signature Algorithm: sha256WithRSAEncryption
        15:cd:6c:89:73:57:c7:11:3e:ee:8a:fc:25:94:b0:47:13:10:
        68:e2:22:dc:15:74:ff:ac:b2:3b:eb:8e:5b:af:87:16:d8:35:
        fa:e6:fd:ab:52:cd:ab:5e:f4:25:15:74:34:aa:32:8d:39:6d:
        13:c1:95:d2:cb:9d:5b:6a:ab:a0:c7:b3:11:73:6a:66:a2:0d:
        3b:71:01:fd:0f:44:9b:75:1c:cc:d4:91:c1:08:20:4b:e4:cb:
        96:13:f3:c2:f1:a0:e0:74:38:a1:8b:9a:80:0d:f6:5f:b4:c8:
        46:89:00:a4:9c:9d:07:09:bb:29:a6:d6:14:ca:61:74:a6:56:
        86:e4
-----BEGIN CERTIFICATE-----
MIIDDTCCAnagAwIBAgIRAPT/NWnLOuMLQiowPVx/OOQwDQYJKoZIhvcNAQELBQAw
VTELMAkGA1UEBhMCQVExDjAMBgNVBAgTBVdoaXRlMREwDwYDVQQHEwhEM2NrdG93
bjEXMBUGA1UEChMORDNja2FzYXVydXNSZXgxCjAIBgNVBAMUASowHhcNMTQwNzIx
MTcxMDAwWhcNMTUwNzIxMTcxMDAwWjBVMQswCQYDVQQGEwJBUTEOMAwGA1UECBMF
V2hpdGUxETAPBgNVBAcTCEQzY2t0b3duMRcwFQYDVQQKEw5EM2NrYXNhdXJ1c1Jl
eDEKMAgGA1UEAxQBKjCBnzANBgkqhkiG9w0BAQEFAAOBjQAwgYkCgYEA7bKnpDW0
sDnkyJjBzIo6/i//VVkyFZDv9bLUF4ildMQv255UbMDdd+ij2dLGNNbHGeHV00fg
7VFFwLOXxwh57usqfJDMmbjNt3qZzS31sRseZHAVjLLsuCX0bQ3961XYoaFAZKY0
4gtoMQqfZwq5YEmMAJR7J8r7eNtFeqfJOAMCAwEAAaOB3DCB2TAJBgNVHRMEAjAA
MCUGCWCGSAGG+EIBDQQYFhZkM2NrIGNlcnR6IHdpdGggcmV0c2luMB0GA1UdDgQW
BBS1buZsf66Ej6t9nFwTu2TNafucnDCBhQYDVR0jBH4wfIAU++dVA/twX6xfDbOi
gt29xb28AFyhWaRXMFUxCzAJBgNVBAYTAkFRMQ4wDAYDVQQIEwVXaGl0ZTERMA8G
A1UEBxMIRDNja3Rvd24xFzAVBgNVBAoTDkQzY2thc2F1cnVzUmV4MQowCAYDVQQD
FAEqggkA/sKnf90VkiMwDQYJKoZIhvcNAQELBQADgYEAFc1siXNXxxE+7or8JZSw
RxMQaOIi3BV0/6yyO+uOW6+HFtg1+ub9q1LNq170JRV0NKoyjTltE8GV0sudW2qr
oMezEXNqZqINO3EB/Q9Em3UczNSRwQggS+TLlhPzwvGg4HQ4oYuagA32X7TIRokA
pJydBwm7KabWFMphdKZWhuQ=
-----END CERTIFICATE-----
