Certificate:
    Data:
        Version: 3 (0x2)
        Serial Number:
            a8:ae:18:5d:64:47:e7:32:7f:c5:df:b5:bf:c9:c2:0e
        Signature Algorithm: sha256WithRSAEncryption
        Issuer: C=AQ, ST=White, L=D3cktown, O=D3ckasaurusRex, CN=*
        Validity
            Not Before: Jul 21 16:33:56 2014 GMT
            Not After : Jul 21 16:33:56 2015 GMT
        Subject: C=AQ, ST=White, L=D3cktown, O=D3ckasaurusRex, CN=*
        Subject Public Key Info:
            Public Key Algorithm: rsaEncryption
            RSA Public Key: (1024 bit)
                Modulus (1024 bit):
                    00:be:1e:58:7a:bf:0c:00:97:87:54:ef:9c:3c:d9:
                    ab:47:66:3e:4f:96:b7:a0:f8:fb:bb:06:a2:6a:db:
                    e7:b1:f2:da:91:98:7a:98:49:9f:c7:3d:c9:8d:b8:
                    d8:d5:87:4c:14:0c:b4:06:27:4d:9b:ed:e7:d7:30:
                    a5:63:27:12:f2:6e:af:dc:02:c7:ee:f3:bd:d4:d6:
                    0d:96:05:6a:3b:27:09:be:0d:05:b6:21:4b:0a:5d:
                    9f:d6:3a:d7:28:5b:75:18:82:9a:5d:cb:64:ca:e8:
                    0a:f1:39:dd:18:04:74:f1:75:91:7e:9a:0d:54:d3:
                    3f:ba:f9:42:c2:6a:5a:60:87
                Exponent: 65537 (0x10001)
        X509v3 extensions:
            X509v3 Basic Constraints: 
                CA:FALSE
            Netscape Comment: 
                d3ck certz with retsin
            X509v3 Subject Key Identifier: 
                A1:6B:FA:FB:15:22:8C:50:0B:DD:70:B7:E0:1D:9E:A7:D2:CF:50:95
            X509v3 Authority Key Identifier: 
                keyid:2B:4A:C9:00:06:82:9E:6F:34:B8:58:58:9E:B2:B4:07:11:F2:BA:89
                DirName:/C=AQ/ST=White/L=D3cktown/O=D3ckasaurusRex/CN=*
                serial:9E:36:BF:79:1D:C5:A2:E3

    Signature Algorithm: sha256WithRSAEncryption
        03:86:5c:85:4c:3e:0d:e0:d3:78:a2:b5:49:60:bb:19:46:2f:
        b3:03:00:d6:50:f1:e1:07:ad:8c:0d:a1:ad:c5:61:77:8d:63:
        01:3d:b8:3c:cc:9f:04:29:21:d4:50:7f:95:80:37:f6:26:04:
        f3:b0:72:e1:43:69:6f:66:43:9f:82:c3:48:3d:c8:79:f0:21:
        c8:fc:58:a2:03:ad:44:d6:3f:c5:89:ce:b0:f7:7a:78:92:26:
        d8:09:fd:cb:24:7f:47:ab:66:27:c7:82:e5:d5:70:86:03:5e:
        31:9c:a0:73:51:41:42:f0:66:44:37:6a:9b:12:f0:cc:f1:67:
        4c:e4
-----BEGIN CERTIFICATE-----
MIIDDTCCAnagAwIBAgIRAKiuGF1kR+cyf8Xftb/Jwg4wDQYJKoZIhvcNAQELBQAw
VTELMAkGA1UEBhMCQVExDjAMBgNVBAgTBVdoaXRlMREwDwYDVQQHEwhEM2NrdG93
bjEXMBUGA1UEChMORDNja2FzYXVydXNSZXgxCjAIBgNVBAMUASowHhcNMTQwNzIx
MTYzMzU2WhcNMTUwNzIxMTYzMzU2WjBVMQswCQYDVQQGEwJBUTEOMAwGA1UECBMF
V2hpdGUxETAPBgNVBAcTCEQzY2t0b3duMRcwFQYDVQQKEw5EM2NrYXNhdXJ1c1Jl
eDEKMAgGA1UEAxQBKjCBnzANBgkqhkiG9w0BAQEFAAOBjQAwgYkCgYEAvh5Yer8M
AJeHVO+cPNmrR2Y+T5a3oPj7uwaiatvnsfLakZh6mEmfxz3JjbjY1YdMFAy0BidN
m+3n1zClYycS8m6v3ALH7vO91NYNlgVqOycJvg0FtiFLCl2f1jrXKFt1GIKaXctk
yugK8TndGAR08XWRfpoNVNM/uvlCwmpaYIcCAwEAAaOB3DCB2TAJBgNVHRMEAjAA
MCUGCWCGSAGG+EIBDQQYFhZkM2NrIGNlcnR6IHdpdGggcmV0c2luMB0GA1UdDgQW
BBSha/r7FSKMUAvdcLfgHZ6n0s9QlTCBhQYDVR0jBH4wfIAUK0rJAAaCnm80uFhY
nrK0BxHyuomhWaRXMFUxCzAJBgNVBAYTAkFRMQ4wDAYDVQQIEwVXaGl0ZTERMA8G
A1UEBxMIRDNja3Rvd24xFzAVBgNVBAoTDkQzY2thc2F1cnVzUmV4MQowCAYDVQQD
FAEqggkAnja/eR3FouMwDQYJKoZIhvcNAQELBQADgYEAA4ZchUw+DeDTeKK1SWC7
GUYvswMA1lDx4QetjA2hrcVhd41jAT24PMyfBCkh1FB/lYA39iYE87By4UNpb2ZD
n4LDSD3IefAhyPxYogOtRNY/xYnOsPd6eJIm2An9yyR/R6tmJ8eC5dVwhgNeMZyg
c1FBQvBmRDdqmxLwzPFnTOQ=
-----END CERTIFICATE-----
