Certificate:
    Data:
        Version: 3 (0x2)
        Serial Number:
            21:b2:fd:06:33:a6:6a:bf:d7:76:96:d5:d2:55:f9:6a
        Signature Algorithm: sha256WithRSAEncryption
        Issuer: C=AQ, ST=N/A, L=Delphia, O=PUCK, OU=Crypto Cops, CN=puckasaurus/name=PUCK/emailAddress=puck@example.com
        Validity
            Not Before: Apr  2 03:31:32 2014 GMT
            Not After : Mar 30 03:31:32 2024 GMT
        Subject: C=AQ, ST=N/A, L=Delphia, O=PUCK, OU=Crypto Cops, CN=puckasaurus/name=PUCK/emailAddress=puck@example.com
        Subject Public Key Info:
            Public Key Algorithm: rsaEncryption
            RSA Public Key: (512 bit)
                Modulus (512 bit):
                    00:e0:28:5f:6c:29:58:87:76:57:8c:75:bc:88:e6:
                    1e:60:7d:12:22:e1:9d:d7:1e:82:38:78:78:9a:dc:
                    58:63:f8:9f:6d:e7:a7:0d:4a:96:78:39:da:65:52:
                    23:82:60:9c:ef:f1:40:f3:27:fe:82:7b:8d:2b:9a:
                    db:94:5e:9a:bf
                Exponent: 65537 (0x10001)
        X509v3 extensions:
            X509v3 Basic Constraints: 
                CA:FALSE
            Netscape Cert Type: 
                SSL Server
            Netscape Comment: 
                Easy-RSA Generated Server Certificate
            X509v3 Subject Key Identifier: 
                09:F1:E2:49:BE:37:7B:0F:3D:27:45:F6:DE:AD:CC:8C:8C:83:6E:47
            X509v3 Authority Key Identifier: 
                keyid:64:C6:64:21:41:66:FC:4F:C9:12:6E:3C:96:1B:36:C4:8A:88:7B:58
                DirName:/C=AQ/ST=N/A/L=Delphia/O=PUCK/OU=Crypto Cops/CN=puckasaurus/name=PUCK/emailAddress=puck@example.com
                serial:C8:E9:48:45:16:EE:64:62

            X509v3 Extended Key Usage: 
                TLS Web Server Authentication
            X509v3 Key Usage: 
                Digital Signature, Key Encipherment
    Signature Algorithm: sha256WithRSAEncryption
        08:af:f1:77:7e:7b:f1:42:01:8a:fc:51:12:d9:4a:25:dd:1d:
        09:96:90:a2:9c:ac:e5:52:37:86:9d:02:67:53:7d:5a:eb:35:
        6b:5e:54:94:1c:0b:d6:61:f4:c9:46:75:ce:6f:bb:c5:1c:01:
        00:a1:24:e3:ac:02:5d:30:14:78
-----BEGIN CERTIFICATE-----
MIIDnTCCA0egAwIBAgIQIbL9BjOmar/XdpbV0lX5ajANBgkqhkiG9w0BAQsFADCB
mDELMAkGA1UEBhMCQVExDDAKBgNVBAgTA04vQTEQMA4GA1UEBxMHRGVscGhpYTEN
MAsGA1UEChMEUFVDSzEUMBIGA1UECxMLQ3J5cHRvIENvcHMxFDASBgNVBAMTC3B1
Y2thc2F1cnVzMQ0wCwYDVQQpEwRQVUNLMR8wHQYJKoZIhvcNAQkBFhBwdWNrQGV4
YW1wbGUuY29tMB4XDTE0MDQwMjAzMzEzMloXDTI0MDMzMDAzMzEzMlowgZgxCzAJ
BgNVBAYTAkFRMQwwCgYDVQQIEwNOL0ExEDAOBgNVBAcTB0RlbHBoaWExDTALBgNV
BAoTBFBVQ0sxFDASBgNVBAsTC0NyeXB0byBDb3BzMRQwEgYDVQQDEwtwdWNrYXNh
dXJ1czENMAsGA1UEKRMEUFVDSzEfMB0GCSqGSIb3DQEJARYQcHVja0BleGFtcGxl
LmNvbTBcMA0GCSqGSIb3DQEBAQUAA0sAMEgCQQDgKF9sKViHdleMdbyI5h5gfRIi
4Z3XHoI4eHia3Fhj+J9t56cNSpZ4OdplUiOCYJzv8UDzJ/6Ce40rmtuUXpq/AgMB
AAGjggFpMIIBZTAJBgNVHRMEAjAAMBEGCWCGSAGG+EIBAQQEAwIGQDA0BglghkgB
hvhCAQ0EJxYlRWFzeS1SU0EgR2VuZXJhdGVkIFNlcnZlciBDZXJ0aWZpY2F0ZTAd
BgNVHQ4EFgQUCfHiSb43ew89J0X23q3MjIyDbkcwgc0GA1UdIwSBxTCBwoAUZMZk
IUFm/E/JEm48lhs2xIqIe1ihgZ6kgZswgZgxCzAJBgNVBAYTAkFRMQwwCgYDVQQI
EwNOL0ExEDAOBgNVBAcTB0RlbHBoaWExDTALBgNVBAoTBFBVQ0sxFDASBgNVBAsT
C0NyeXB0byBDb3BzMRQwEgYDVQQDEwtwdWNrYXNhdXJ1czENMAsGA1UEKRMEUFVD
SzEfMB0GCSqGSIb3DQEJARYQcHVja0BleGFtcGxlLmNvbYIJAMjpSEUW7mRiMBMG
A1UdJQQMMAoGCCsGAQUFBwMBMAsGA1UdDwQEAwIFoDANBgkqhkiG9w0BAQsFAANB
AAiv8Xd+e/FCAYr8URLZSiXdHQmWkKKcrOVSN4adAmdTfVrrNWteVJQcC9Zh9MlG
dc5vu8UcAQChJOOsAl0wFHg=
-----END CERTIFICATE-----
