Certificate:
    Data:
        Version: 3 (0x2)
        Serial Number:
            26:ec:62:f1:c1:3e:87:7c:73:3d:3a:58:22:19:8a:33
        Signature Algorithm: sha256WithRSAEncryption
        Issuer: C=AQ, CN=5382a22d5b249a13f1ffaada42b6e5ae
        Validity
            Not Before: Jul  5 21:23:42 2014 GMT
            Not After : Jul  5 21:23:42 2015 GMT
        Subject: C=AQ, ST=White, L=D3cktown, O=D3ckasaurusRex, CN=*
        Subject Public Key Info:
            Public Key Algorithm: rsaEncryption
            RSA Public Key: (1024 bit)
                Modulus (1024 bit):
                    00:c3:b6:6f:bb:ae:9f:03:e2:9d:38:57:5c:85:f3:
                    79:b9:ad:59:28:24:7f:ec:53:94:6a:1d:19:f1:bf:
                    14:ac:d7:eb:11:be:01:a1:90:aa:02:00:34:e5:dc:
                    cd:6b:d8:ce:7b:c8:50:0d:45:a7:04:2d:eb:30:b2:
                    84:a3:be:3a:24:a9:c9:c3:ab:4b:a8:d7:af:a6:b1:
                    8d:6f:f8:54:8d:be:f2:fe:c3:57:c8:61:4a:58:07:
                    02:1f:d8:e1:87:b9:af:f8:f5:3e:25:03:52:4b:15:
                    a8:37:86:17:0d:51:2e:bb:73:f8:ff:6f:44:d5:42:
                    5d:c5:7f:ba:6d:aa:46:74:1f
                Exponent: 65537 (0x10001)
        X509v3 extensions:
            X509v3 Basic Constraints: 
                CA:FALSE
            Netscape Comment: 
                Easy-RSA Generated Certificate
            X509v3 Subject Key Identifier: 
                12:30:92:B5:59:B6:83:38:14:AB:45:CE:B6:EE:39:E1:7E:AD:91:99
            X509v3 Authority Key Identifier: 
                keyid:BA:61:FF:22:B4:BA:1E:C9:C8:4C:47:F3:8C:4B:A0:2F:2B:6B:8F:67
                DirName:/C=AQ/CN=5382a22d5b249a13f1ffaada42b6e5ae
                serial:83:59:B6:BD:74:B6:EA:F2

            X509v3 Extended Key Usage: 
                TLS Web Client Authentication
            X509v3 Key Usage: 
                Digital Signature
    Signature Algorithm: sha256WithRSAEncryption
        b6:ff:65:b9:8c:aa:42:23:69:10:e9:31:12:c2:32:01:d2:a1:
        2e:d7:08:48:d9:ed:eb:24:5f:9e:9a:8a:7f:68:b8:86:fe:c2:
        5e:b4:f1:5d:3e:7c:43:e1:c1:34:47:4e:64:2a:c4:ed:34:16:
        b8:bb:cf:48:e0:cf:5f:c9:27:bb:51:9a:ac:c8:84:0a:b6:57:
        6d:2e:12:3c:4a:9f:4a:0b:de:41:72:43:cc:fd:7d:6b:a6:58:
        0f:a8:f0:84:44:ea:47:87:b0:27:ce:42:52:e6:0c:6f:78:c3:
        9d:91:97:85:d2:40:d3:1e:97:f9:4d:85:7b:dc:6b:d8:25:c4:
        d9:db
-----BEGIN CERTIFICATE-----
MIIC+zCCAmSgAwIBAgIQJuxi8cE+h3xzPTpYIhmKMzANBgkqhkiG9w0BAQsFADA4
MQswCQYDVQQGEwJBUTEpMCcGA1UEAxMgNTM4MmEyMmQ1YjI0OWExM2YxZmZhYWRh
NDJiNmU1YWUwHhcNMTQwNzA1MjEyMzQyWhcNMTUwNzA1MjEyMzQyWjBVMQswCQYD
VQQGEwJBUTEOMAwGA1UECBMFV2hpdGUxETAPBgNVBAcTCEQzY2t0b3duMRcwFQYD
VQQKEw5EM2NrYXNhdXJ1c1JleDEKMAgGA1UEAxQBKjCBnzANBgkqhkiG9w0BAQEF
AAOBjQAwgYkCgYEAw7Zvu66fA+KdOFdchfN5ua1ZKCR/7FOUah0Z8b8UrNfrEb4B
oZCqAgA05dzNa9jOe8hQDUWnBC3rMLKEo746JKnJw6tLqNevprGNb/hUjb7y/sNX
yGFKWAcCH9jhh7mv+PU+JQNSSxWoN4YXDVEuu3P4/29E1UJdxX+6bapGdB8CAwEA
AaOB6DCB5TAJBgNVHRMEAjAAMC0GCWCGSAGG+EIBDQQgFh5FYXN5LVJTQSBHZW5l
cmF0ZWQgQ2VydGlmaWNhdGUwHQYDVR0OBBYEFBIwkrVZtoM4FKtFzrbuOeF+rZGZ
MGgGA1UdIwRhMF+AFLph/yK0uh7JyExH84xLoC8ra49noTykOjA4MQswCQYDVQQG
EwJBUTEpMCcGA1UEAxMgNTM4MmEyMmQ1YjI0OWExM2YxZmZhYWRhNDJiNmU1YWWC
CQCDWba9dLbq8jATBgNVHSUEDDAKBggrBgEFBQcDAjALBgNVHQ8EBAMCB4AwDQYJ
KoZIhvcNAQELBQADgYEAtv9luYyqQiNpEOkxEsIyAdKhLtcISNnt6yRfnpqKf2i4
hv7CXrTxXT58Q+HBNEdOZCrE7TQWuLvPSODPX8knu1GarMiECrZXbS4SPEqfSgve
QXJDzP19a6ZYD6jwhETqR4ewJ85CUuYMb3jDnZGXhdJA0x6X+U2Fe9xr2CXE2ds=
-----END CERTIFICATE-----
