Certificate:
    Data:
        Version: 3 (0x2)
        Serial Number: 1 (0x1)
        Signature Algorithm: sha256WithRSAEncryption
        Issuer: C=AQ, ST=N/A, L=Delphia, O=PUCK, OU=Crypto Cops, CN=CommonName/name=PUCK/emailAddress=puck@fish2.com
        Validity
            Not Before: Mar  6 22:21:14 2013 GMT
            Not After : Mar  4 22:21:14 2023 GMT
        Subject: C=AQ, ST=N/A, L=Delphia, O=PUCK, OU=Crypto Cops, CN=server/name=PUCK/emailAddress=puck@fish2.com
        Subject Public Key Info:
            Public Key Algorithm: rsaEncryption
            RSA Public Key: (2048 bit)
                Modulus (2048 bit):
                    00:ac:70:b7:67:57:67:77:04:0f:b3:e3:d0:f1:24:
                    24:08:ff:53:1c:0f:ca:22:6d:10:98:89:92:3b:23:
                    51:5c:f9:d8:12:e2:01:a9:82:42:79:bc:4a:2d:bf:
                    29:76:d4:e9:68:d0:a4:01:3e:17:9a:5e:61:db:f9:
                    d2:6c:c1:f4:2e:aa:e5:5e:68:db:ae:2a:a2:ab:08:
                    64:df:97:56:db:2c:44:29:96:54:df:53:2a:16:b3:
                    87:30:e5:c7:0d:90:1a:e5:c0:2f:1e:54:56:39:b6:
                    bf:7e:88:1b:77:4d:96:25:a8:fc:3f:16:83:49:2c:
                    1e:8a:ef:1f:54:29:d7:55:23:fe:9b:a1:fa:ff:41:
                    e7:2f:a6:0c:35:0b:f3:78:26:27:c3:15:6e:b2:06:
                    0e:39:45:e3:f6:8a:e5:64:d9:00:de:fd:62:3a:89:
                    ba:f6:47:39:cd:57:46:cb:6d:bf:d9:70:29:c4:1c:
                    5f:63:c6:60:5e:36:fd:dd:d8:10:95:9e:59:0a:60:
                    f0:40:00:47:eb:16:46:9e:3c:ef:00:08:4f:78:a3:
                    2c:c0:33:be:7f:46:16:31:8d:7e:49:e1:32:ab:82:
                    58:fe:4c:7d:3d:52:fc:fd:76:54:18:87:39:0e:a8:
                    19:77:27:bf:ca:4e:f7:8e:68:c4:2f:3d:ab:06:70:
                    e9:7f
                Exponent: 65537 (0x10001)
        X509v3 extensions:
            X509v3 Basic Constraints: 
                CA:FALSE
            Netscape Cert Type: 
                SSL Server
            Netscape Comment: 
                Easy-RSA Generated Server Certificate
            X509v3 Subject Key Identifier: 
                59:71:59:1F:39:FF:18:FA:A3:C4:F2:4F:5B:65:66:67:28:D5:B8:99
            X509v3 Authority Key Identifier: 
                keyid:A6:D1:CA:56:85:9F:CD:FA:BD:A3:90:F2:B3:BC:90:4B:BD:B1:54:43
                DirName:/C=AQ/ST=N/A/L=Delphia/O=PUCK/OU=Crypto Cops/CN=CommonName/name=PUCK/emailAddress=puck@fish2.com
                serial:B8:68:25:7F:84:03:B2:B8

            X509v3 Extended Key Usage: 
                TLS Web Server Authentication
            X509v3 Key Usage: 
                Digital Signature, Key Encipherment
    Signature Algorithm: sha256WithRSAEncryption
        3a:18:11:f9:92:16:d4:88:5e:e2:ef:a7:30:22:7d:8a:76:7b:
        f3:a0:92:2b:54:3f:c2:72:74:b1:fd:a3:8a:5d:eb:04:3d:d5:
        d3:77:e6:4c:f5:84:34:5e:52:47:4c:7f:42:5f:b1:a4:3f:95:
        1c:1f:e8:e7:8d:fc:33:f1:b0:8b:b5:28:f6:38:31:84:e2:40:
        25:55:56:e7:5a:2e:98:2d:68:b4:56:8a:7b:d1:ca:54:b2:64:
        60:0f:c2:e6:74:40:aa:07:38:52:fc:bf:d6:ff:39:b2:3a:dc:
        fa:af:c4:45:bc:28:98:c4:b8:1f:87:b4:44:de:19:91:cd:2b:
        59:b5:12:28:18:30:77:a9:54:95:5f:3b:26:16:c0:ad:c7:66:
        c9:52:c0:8d:f8:52:0b:d5:2f:03:d7:2d:7a:a7:fc:71:91:79:
        90:1a:4b:e9:6a:cb:46:8e:b4:85:11:5f:19:eb:39:80:36:2c:
        35:b2:ed:a7:b7:a3:77:90:5a:fc:fe:28:a7:98:3a:f9:1f:8b:
        36:46:85:05:c5:c4:62:96:67:4f:16:b5:84:5a:9e:2a:af:65:
        55:d2:8c:5d:e0:bb:b1:87:3c:fc:a7:9a:b8:87:92:ac:37:59:
        c7:19:bd:2c:51:5a:53:fa:44:33:c6:b0:bc:69:22:d0:9c:51:
        af:b6:8c:b4
-----BEGIN CERTIFICATE-----
MIIFCzCCA/OgAwIBAgIBATANBgkqhkiG9w0BAQsFADCBlTELMAkGA1UEBhMCQVEx
DDAKBgNVBAgTA04vQTEQMA4GA1UEBxMHRGVscGhpYTENMAsGA1UEChMEUFVDSzEU
MBIGA1UECxMLQ3J5cHRvIENvcHMxEzARBgNVBAMTCkNvbW1vbk5hbWUxDTALBgNV
BCkTBFBVQ0sxHTAbBgkqhkiG9w0BCQEWDnB1Y2tAZmlzaDIuY29tMB4XDTEzMDMw
NjIyMjExNFoXDTIzMDMwNDIyMjExNFowgZExCzAJBgNVBAYTAkFRMQwwCgYDVQQI
EwNOL0ExEDAOBgNVBAcTB0RlbHBoaWExDTALBgNVBAoTBFBVQ0sxFDASBgNVBAsT
C0NyeXB0byBDb3BzMQ8wDQYDVQQDEwZzZXJ2ZXIxDTALBgNVBCkTBFBVQ0sxHTAb
BgkqhkiG9w0BCQEWDnB1Y2tAZmlzaDIuY29tMIIBIjANBgkqhkiG9w0BAQEFAAOC
AQ8AMIIBCgKCAQEArHC3Z1dndwQPs+PQ8SQkCP9THA/KIm0QmImSOyNRXPnYEuIB
qYJCebxKLb8pdtTpaNCkAT4Xml5h2/nSbMH0LqrlXmjbriqiqwhk35dW2yxEKZZU
31MqFrOHMOXHDZAa5cAvHlRWOba/fogbd02WJaj8PxaDSSweiu8fVCnXVSP+m6H6
/0HnL6YMNQvzeCYnwxVusgYOOUXj9orlZNkA3v1iOom69kc5zVdGy22/2XApxBxf
Y8ZgXjb93dgQlZ5ZCmDwQABH6xZGnjzvAAhPeKMswDO+f0YWMY1+SeEyq4JY/kx9
PVL8/XZUGIc5DqgZdye/yk73jmjELz2rBnDpfwIDAQABo4IBZjCCAWIwCQYDVR0T
BAIwADARBglghkgBhvhCAQEEBAMCBkAwNAYJYIZIAYb4QgENBCcWJUVhc3ktUlNB
IEdlbmVyYXRlZCBTZXJ2ZXIgQ2VydGlmaWNhdGUwHQYDVR0OBBYEFFlxWR85/xj6
o8TyT1tlZmco1biZMIHKBgNVHSMEgcIwgb+AFKbRylaFn836vaOQ8rO8kEu9sVRD
oYGbpIGYMIGVMQswCQYDVQQGEwJBUTEMMAoGA1UECBMDTi9BMRAwDgYDVQQHEwdE
ZWxwaGlhMQ0wCwYDVQQKEwRQVUNLMRQwEgYDVQQLEwtDcnlwdG8gQ29wczETMBEG
A1UEAxMKQ29tbW9uTmFtZTENMAsGA1UEKRMEUFVDSzEdMBsGCSqGSIb3DQEJARYO
cHVja0BmaXNoMi5jb22CCQC4aCV/hAOyuDATBgNVHSUEDDAKBggrBgEFBQcDATAL
BgNVHQ8EBAMCBaAwDQYJKoZIhvcNAQELBQADggEBADoYEfmSFtSIXuLvpzAifYp2
e/OgkitUP8JydLH9o4pd6wQ91dN35kz1hDReUkdMf0JfsaQ/lRwf6OeN/DPxsIu1
KPY4MYTiQCVVVudaLpgtaLRWinvRylSyZGAPwuZ0QKoHOFL8v9b/ObI63PqvxEW8
KJjEuB+HtETeGZHNK1m1EigYMHepVJVfOyYWwK3HZslSwI34UgvVLwPXLXqn/HGR
eZAaS+lqy0aOtIURXxnrOYA2LDWy7ae3o3eQWvz+KKeYOvkfizZGhQXFxGKWZ08W
tYRaniqvZVXSjF3gu7GHPPynmriHkqw3WccZvSxRWlP6RDPGsLxpItCcUa+2jLQ=
-----END CERTIFICATE-----
