Certificate:
    Data:
        Version: 3 (0x2)
        Serial Number:
            a7:c6:52:f3:83:52:cf:89:0a:82:d0:aa:7d:00:67:54
        Signature Algorithm: sha256WithRSAEncryption
        Issuer: C=AQ, ST=N/A, L=Delphia, O=PUCK, OU=Crypto Cops, CN=puckasaurus/name=PUCK/emailAddress=puck@example.com
        Validity
            Not Before: Mar 22 22:17:13 2014 GMT
            Not After : Mar 22 22:17:13 2015 GMT
        Subject: C=AQ, ST=N/A, L=Delphia, O=PUCK, OU=Crypto Cops, CN=puckasaurus/name=PUCK/emailAddress=puck@example.com
        Subject Public Key Info:
            Public Key Algorithm: rsaEncryption
            RSA Public Key: (512 bit)
                Modulus (512 bit):
                    00:bd:4d:67:37:89:7e:84:3d:97:c4:13:60:0a:70:
                    8a:9f:7f:f7:bd:18:d3:12:fc:3c:f0:85:21:bd:c2:
                    8c:5e:c9:a2:c5:2d:12:c4:e3:23:58:95:48:06:95:
                    ad:d1:cb:b8:be:0c:9c:af:92:28:3d:82:73:21:5c:
                    34:77:66:cd:61
                Exponent: 65537 (0x10001)
        X509v3 extensions:
            X509v3 Basic Constraints: 
                CA:FALSE
            Netscape Comment: 
                Easy-RSA Generated Certificate
            X509v3 Subject Key Identifier: 
                FF:55:92:59:16:BD:4E:52:03:D7:2E:EF:84:DE:EA:E5:64:53:CE:02
            X509v3 Authority Key Identifier: 
                keyid:93:8C:70:F0:03:79:78:E0:7A:EA:0E:A3:C7:2F:ED:DA:84:AF:CB:C8
                DirName:/C=AQ/ST=N/A/L=Delphia/O=PUCK/OU=Crypto Cops/CN=puckasaurus/name=PUCK/emailAddress=puck@example.com
                serial:E8:79:7B:0B:65:CA:81:78

            X509v3 Extended Key Usage: 
                TLS Web Client Authentication
            X509v3 Key Usage: 
                Digital Signature
    Signature Algorithm: sha256WithRSAEncryption
        cb:69:a0:5f:8d:83:a9:e3:6f:cb:3b:68:b1:cb:c1:c6:7d:27:
        95:39:23:16:d7:6e:80:c1:5d:72:47:c4:b0:c4:f1:33:1a:a1:
        a5:a5:a2:cd:4b:7f:73:d2:c7:f8:ba:09:7a:6d:b8:e5:52:32:
        cf:41:3d:f6:0b:ab:43:5b:3d:66
-----BEGIN CERTIFICATE-----
MIIDhDCCAy6gAwIBAgIRAKfGUvODUs+JCoLQqn0AZ1QwDQYJKoZIhvcNAQELBQAw
gZgxCzAJBgNVBAYTAkFRMQwwCgYDVQQIEwNOL0ExEDAOBgNVBAcTB0RlbHBoaWEx
DTALBgNVBAoTBFBVQ0sxFDASBgNVBAsTC0NyeXB0byBDb3BzMRQwEgYDVQQDEwtw
dWNrYXNhdXJ1czENMAsGA1UEKRMEUFVDSzEfMB0GCSqGSIb3DQEJARYQcHVja0Bl
eGFtcGxlLmNvbTAeFw0xNDAzMjIyMjE3MTNaFw0xNTAzMjIyMjE3MTNaMIGYMQsw
CQYDVQQGEwJBUTEMMAoGA1UECBMDTi9BMRAwDgYDVQQHEwdEZWxwaGlhMQ0wCwYD
VQQKEwRQVUNLMRQwEgYDVQQLEwtDcnlwdG8gQ29wczEUMBIGA1UEAxMLcHVja2Fz
YXVydXMxDTALBgNVBCkTBFBVQ0sxHzAdBgkqhkiG9w0BCQEWEHB1Y2tAZXhhbXBs
ZS5jb20wXDANBgkqhkiG9w0BAQEFAANLADBIAkEAvU1nN4l+hD2XxBNgCnCKn3/3
vRjTEvw88IUhvcKMXsmixS0SxOMjWJVIBpWt0cu4vgycr5IoPYJzIVw0d2bNYQID
AQABo4IBTzCCAUswCQYDVR0TBAIwADAtBglghkgBhvhCAQ0EIBYeRWFzeS1SU0Eg
R2VuZXJhdGVkIENlcnRpZmljYXRlMB0GA1UdDgQWBBT/VZJZFr1OUgPXLu+E3url
ZFPOAjCBzQYDVR0jBIHFMIHCgBSTjHDwA3l44HrqDqPHL+3ahK/LyKGBnqSBmzCB
mDELMAkGA1UEBhMCQVExDDAKBgNVBAgTA04vQTEQMA4GA1UEBxMHRGVscGhpYTEN
MAsGA1UEChMEUFVDSzEUMBIGA1UECxMLQ3J5cHRvIENvcHMxFDASBgNVBAMTC3B1
Y2thc2F1cnVzMQ0wCwYDVQQpEwRQVUNLMR8wHQYJKoZIhvcNAQkBFhBwdWNrQGV4
YW1wbGUuY29tggkA6Hl7C2XKgXgwEwYDVR0lBAwwCgYIKwYBBQUHAwIwCwYDVR0P
BAQDAgeAMA0GCSqGSIb3DQEBCwUAA0EAy2mgX42DqeNvyztoscvBxn0nlTkjFtdu
gMFdckfEsMTxMxqhpaWizUt/c9LH+LoJem245VIyz0E99gurQ1s9Zg==
-----END CERTIFICATE-----
