Certificate:
    Data:
        Version: 3 (0x2)
        Serial Number:
            a7:c6:52:f3:83:52:cf:89:0a:82:d0:aa:7d:00:67:53
        Signature Algorithm: sha256WithRSAEncryption
        Issuer: C=AQ, ST=N/A, L=Delphia, O=PUCK, OU=Crypto Cops, CN=puckasaurus/name=PUCK/emailAddress=puck@example.com
        Validity
            Not Before: Mar 22 22:17:13 2014 GMT
            Not After : Mar 19 22:17:13 2024 GMT
        Subject: C=AQ, ST=N/A, L=Delphia, O=PUCK, OU=Crypto Cops, CN=puckasaurus/name=PUCK/emailAddress=puck@example.com
        Subject Public Key Info:
            Public Key Algorithm: rsaEncryption
            RSA Public Key: (512 bit)
                Modulus (512 bit):
                    00:d0:a5:c8:ac:29:3e:c7:da:71:e5:61:ae:a2:00:
                    ab:21:e8:45:d0:f3:e2:6b:d0:34:3d:2f:18:5b:8a:
                    c1:b8:f1:0c:bb:f6:1e:97:9b:14:d6:0c:75:fd:ec:
                    3e:a9:49:5e:5a:fe:5f:ea:c9:c9:25:7f:20:d1:0a:
                    08:3c:95:d4:15
                Exponent: 65537 (0x10001)
        X509v3 extensions:
            X509v3 Basic Constraints: 
                CA:FALSE
            Netscape Cert Type: 
                SSL Server
            Netscape Comment: 
                Easy-RSA Generated Server Certificate
            X509v3 Subject Key Identifier: 
                1E:C0:AF:86:7B:A0:7E:2D:5B:6B:C9:9D:27:70:5C:5F:D5:57:03:45
            X509v3 Authority Key Identifier: 
                keyid:93:8C:70:F0:03:79:78:E0:7A:EA:0E:A3:C7:2F:ED:DA:84:AF:CB:C8
                DirName:/C=AQ/ST=N/A/L=Delphia/O=PUCK/OU=Crypto Cops/CN=puckasaurus/name=PUCK/emailAddress=puck@example.com
                serial:E8:79:7B:0B:65:CA:81:78

            X509v3 Extended Key Usage: 
                TLS Web Server Authentication
            X509v3 Key Usage: 
                Digital Signature, Key Encipherment
    Signature Algorithm: sha256WithRSAEncryption
        60:f3:d2:51:e5:f1:a4:cb:13:3d:cb:99:f0:b2:51:de:fa:22:
        3b:7f:13:be:3d:d2:63:d3:2a:ac:38:e4:61:16:cc:ab:08:5f:
        26:db:d9:33:fc:82:57:7f:f7:4b:3b:d1:d5:dc:2e:1e:76:ef:
        2e:50:83:99:69:3e:35:36:4a:ae
-----BEGIN CERTIFICATE-----
MIIDnjCCA0igAwIBAgIRAKfGUvODUs+JCoLQqn0AZ1MwDQYJKoZIhvcNAQELBQAw
gZgxCzAJBgNVBAYTAkFRMQwwCgYDVQQIEwNOL0ExEDAOBgNVBAcTB0RlbHBoaWEx
DTALBgNVBAoTBFBVQ0sxFDASBgNVBAsTC0NyeXB0byBDb3BzMRQwEgYDVQQDEwtw
dWNrYXNhdXJ1czENMAsGA1UEKRMEUFVDSzEfMB0GCSqGSIb3DQEJARYQcHVja0Bl
eGFtcGxlLmNvbTAeFw0xNDAzMjIyMjE3MTNaFw0yNDAzMTkyMjE3MTNaMIGYMQsw
CQYDVQQGEwJBUTEMMAoGA1UECBMDTi9BMRAwDgYDVQQHEwdEZWxwaGlhMQ0wCwYD
VQQKEwRQVUNLMRQwEgYDVQQLEwtDcnlwdG8gQ29wczEUMBIGA1UEAxMLcHVja2Fz
YXVydXMxDTALBgNVBCkTBFBVQ0sxHzAdBgkqhkiG9w0BCQEWEHB1Y2tAZXhhbXBs
ZS5jb20wXDANBgkqhkiG9w0BAQEFAANLADBIAkEA0KXIrCk+x9px5WGuogCrIehF
0PPia9A0PS8YW4rBuPEMu/Yel5sU1gx1/ew+qUleWv5f6snJJX8g0QoIPJXUFQID
AQABo4IBaTCCAWUwCQYDVR0TBAIwADARBglghkgBhvhCAQEEBAMCBkAwNAYJYIZI
AYb4QgENBCcWJUVhc3ktUlNBIEdlbmVyYXRlZCBTZXJ2ZXIgQ2VydGlmaWNhdGUw
HQYDVR0OBBYEFB7Ar4Z7oH4tW2vJnSdwXF/VVwNFMIHNBgNVHSMEgcUwgcKAFJOM
cPADeXjgeuoOo8cv7dqEr8vIoYGepIGbMIGYMQswCQYDVQQGEwJBUTEMMAoGA1UE
CBMDTi9BMRAwDgYDVQQHEwdEZWxwaGlhMQ0wCwYDVQQKEwRQVUNLMRQwEgYDVQQL
EwtDcnlwdG8gQ29wczEUMBIGA1UEAxMLcHVja2FzYXVydXMxDTALBgNVBCkTBFBV
Q0sxHzAdBgkqhkiG9w0BCQEWEHB1Y2tAZXhhbXBsZS5jb22CCQDoeXsLZcqBeDAT
BgNVHSUEDDAKBggrBgEFBQcDATALBgNVHQ8EBAMCBaAwDQYJKoZIhvcNAQELBQAD
QQBg89JR5fGkyxM9y5nwslHe+iI7fxO+PdJj0yqsOORhFsyrCF8m29kz/IJXf/dL
O9HV3C4edu8uUIOZaT41Nkqu
-----END CERTIFICATE-----
