Certificate:
    Data:
        Version: 3 (0x2)
        Serial Number:
            ea:8f:e6:af:bb:a6:44:8a:ce:8a:41:69:d1:2a:f7:f7
        Signature Algorithm: sha256WithRSAEncryption
        Issuer: C=AQ, ST=N/A, L=Delphia, O=PUCK, OU=Crypto Cops, CN=puckasaurus/name=PUCK/emailAddress=puck@example.com
        Validity
            Not Before: Mar 23 17:16:56 2014 GMT
            Not After : Mar 23 17:16:56 2015 GMT
        Subject: C=AQ, ST=N/A, L=Delphia, O=PUCK, OU=Crypto Cops, CN=puckasaurus/name=PUCK/emailAddress=puck@example.com
        Subject Public Key Info:
            Public Key Algorithm: rsaEncryption
            RSA Public Key: (512 bit)
                Modulus (512 bit):
                    00:d1:78:62:dc:8a:a3:a7:4d:4a:ea:f1:92:bd:4c:
                    96:b4:06:cf:75:d6:94:f6:ed:a1:87:e2:28:06:e8:
                    5b:4d:e1:b5:4d:61:95:bb:c9:4c:d4:43:a2:24:83:
                    e5:ad:9a:0a:5f:f1:a8:68:8d:45:60:40:6e:b5:09:
                    71:8a:4e:83:67
                Exponent: 65537 (0x10001)
        X509v3 extensions:
            X509v3 Basic Constraints: 
                CA:FALSE
            Netscape Comment: 
                Easy-RSA Generated Certificate
            X509v3 Subject Key Identifier: 
                04:91:53:30:56:23:7F:F8:C5:61:20:35:05:26:CD:C0:A2:8C:58:55
            X509v3 Authority Key Identifier: 
                keyid:01:09:CB:CC:93:CA:B3:FE:5C:E7:EB:85:0C:E9:C2:5D:D3:90:71:1B
                DirName:/C=AQ/ST=N/A/L=Delphia/O=PUCK/OU=Crypto Cops/CN=puckasaurus/name=PUCK/emailAddress=puck@example.com
                serial:96:83:EF:39:BE:F1:0A:E5

            X509v3 Extended Key Usage: 
                TLS Web Client Authentication
            X509v3 Key Usage: 
                Digital Signature
    Signature Algorithm: sha256WithRSAEncryption
        40:68:d9:19:8e:1f:74:be:27:81:21:5e:0f:3f:24:f8:cb:fe:
        b6:89:35:1e:a2:7a:05:44:eb:5f:aa:24:e8:ff:08:93:87:58:
        f2:9b:96:c3:46:fc:7d:c1:e0:9e:aa:a9:07:ed:eb:4f:25:14:
        63:42:2e:ae:7c:e5:a0:b7:32:16
-----BEGIN CERTIFICATE-----
MIIDhDCCAy6gAwIBAgIRAOqP5q+7pkSKzopBadEq9/cwDQYJKoZIhvcNAQELBQAw
gZgxCzAJBgNVBAYTAkFRMQwwCgYDVQQIEwNOL0ExEDAOBgNVBAcTB0RlbHBoaWEx
DTALBgNVBAoTBFBVQ0sxFDASBgNVBAsTC0NyeXB0byBDb3BzMRQwEgYDVQQDEwtw
dWNrYXNhdXJ1czENMAsGA1UEKRMEUFVDSzEfMB0GCSqGSIb3DQEJARYQcHVja0Bl
eGFtcGxlLmNvbTAeFw0xNDAzMjMxNzE2NTZaFw0xNTAzMjMxNzE2NTZaMIGYMQsw
CQYDVQQGEwJBUTEMMAoGA1UECBMDTi9BMRAwDgYDVQQHEwdEZWxwaGlhMQ0wCwYD
VQQKEwRQVUNLMRQwEgYDVQQLEwtDcnlwdG8gQ29wczEUMBIGA1UEAxMLcHVja2Fz
YXVydXMxDTALBgNVBCkTBFBVQ0sxHzAdBgkqhkiG9w0BCQEWEHB1Y2tAZXhhbXBs
ZS5jb20wXDANBgkqhkiG9w0BAQEFAANLADBIAkEA0Xhi3Iqjp01K6vGSvUyWtAbP
ddaU9u2hh+IoBuhbTeG1TWGVu8lM1EOiJIPlrZoKX/GoaI1FYEButQlxik6DZwID
AQABo4IBTzCCAUswCQYDVR0TBAIwADAtBglghkgBhvhCAQ0EIBYeRWFzeS1SU0Eg
R2VuZXJhdGVkIENlcnRpZmljYXRlMB0GA1UdDgQWBBQEkVMwViN/+MVhIDUFJs3A
ooxYVTCBzQYDVR0jBIHFMIHCgBQBCcvMk8qz/lzn64UM6cJd05BxG6GBnqSBmzCB
mDELMAkGA1UEBhMCQVExDDAKBgNVBAgTA04vQTEQMA4GA1UEBxMHRGVscGhpYTEN
MAsGA1UEChMEUFVDSzEUMBIGA1UECxMLQ3J5cHRvIENvcHMxFDASBgNVBAMTC3B1
Y2thc2F1cnVzMQ0wCwYDVQQpEwRQVUNLMR8wHQYJKoZIhvcNAQkBFhBwdWNrQGV4
YW1wbGUuY29tggkAloPvOb7xCuUwEwYDVR0lBAwwCgYIKwYBBQUHAwIwCwYDVR0P
BAQDAgeAMA0GCSqGSIb3DQEBCwUAA0EAQGjZGY4fdL4ngSFeDz8k+Mv+tok1HqJ6
BUTrX6ok6P8Ik4dY8puWw0b8fcHgnqqpB+3rTyUUY0IurnzloLcyFg==
-----END CERTIFICATE-----
