Certificate:
 Data:
 Version: 3 (0x2)
 Serial Number:
 f2:7d:a4:fe:5d:b5:9a:4b:82:5e:92:c2:5c:66:0b:34
 Signature Algorithm: sha256WithRSAEncryption
 Issuer: C=AQ, ST=N/A, L=Delphia, O=PUCK, OU=Crypto Cops, CN=puckasaurus/name=PUCK/emailAddress=puck@example.com
 Validity
 Not Before: Mar 30 19:55:25 2014 GMT
 Not After : Mar 30 19:55:25 2015 GMT
 Subject: C=AQ, ST=N/A, L=Delphia, O=PUCK, OU=Crypto Cops, CN=puckasaurus/name=PUCK/emailAddress=puck@example.com
 Subject Public Key Info:
 Public Key Algorithm: rsaEncryption
 Public-Key: (512 bit)
 Modulus:
 00:bf:20:56:fe:99:65:04:5c:8b:d5:6a:ca:93:d4:
 d8:51:88:9a:05:1c:19:e8:81:12:75:78:c1:f5:19:
 cd:9e:23:c3:3e:4b:95:61:ae:d3:a7:a4:b3:e5:a8:
 f3:1f:b2:aa:32:1c:38:64:59:24:5d:43:c6:31:48:
 d1:94:75:cb:7f
 Exponent: 65537 (0x10001)
 X509v3 extensions:
 X509v3 Basic Constraints: 
 CA:FALSE
 Netscape Comment: 
 Easy-RSA Generated Certificate
 X509v3 Subject Key Identifier: 
 7F:6D:D6:16:55:6E:E0:76:BA:B3:58:20:F5:B2:AA:36:AB:99:30:32
 X509v3 Authority Key Identifier: 
 keyid:02:D1:45:56:6A:48:41:4B:B7:8E:16:41:28:E7:1C:39:D0:42:A6:D6
 DirName:/C=AQ/ST=N/A/L=Delphia/O=PUCK/OU=Crypto Cops/CN=puckasaurus/name=PUCK/emailAddress=puck@example.com
 serial:CC:DF:BB:18:83:30:30:1A

 X509v3 Extended Key Usage: 
 TLS Web Client Authentication
 X509v3 Key Usage: 
 Digital Signature
 Signature Algorithm: sha256WithRSAEncryption
 8c:0a:54:82:ad:46:6e:b6:2c:7d:56:a4:bf:7c:c1:11:9b:be:
 38:09:ec:39:b1:8f:3c:59:e2:42:9d:50:df:ad:f2:99:ab:7c:
 a5:33:df:6a:a1:d0:71:9c:0f:3b:7a:d2:4a:3f:63:04:8f:2c:
 7e:04:c1:c8:ea:8d:50:af:d5:c4
-----BEGIN CERTIFICATE-----
MIIDhDCCAy6gAwIBAgIRAPJ9pP5dtZpLgl6SwlxmCzQwDQYJKoZIhvcNAQELBQAw
gZgxCzAJBgNVBAYTAkFRMQwwCgYDVQQIEwNOL0ExEDAOBgNVBAcTB0RlbHBoaWEx
DTALBgNVBAoTBFBVQ0sxFDASBgNVBAsTC0NyeXB0byBDb3BzMRQwEgYDVQQDEwtw
dWNrYXNhdXJ1czENMAsGA1UEKRMEUFVDSzEfMB0GCSqGSIb3DQEJARYQcHVja0Bl
eGFtcGxlLmNvbTAeFw0xNDAzMzAxOTU1MjVaFw0xNTAzMzAxOTU1MjVaMIGYMQsw
CQYDVQQGEwJBUTEMMAoGA1UECBMDTi9BMRAwDgYDVQQHEwdEZWxwaGlhMQ0wCwYD
VQQKEwRQVUNLMRQwEgYDVQQLEwtDcnlwdG8gQ29wczEUMBIGA1UEAxMLcHVja2Fz
YXVydXMxDTALBgNVBCkTBFBVQ0sxHzAdBgkqhkiG9w0BCQEWEHB1Y2tAZXhhbXBs
ZS5jb20wXDANBgkqhkiG9w0BAQEFAANLADBIAkEAvyBW/pllBFyL1WrKk9TYUYia
BRwZ6IESdXjB9RnNniPDPkuVYa7Tp6Sz5ajzH7KqMhw4ZFkkXUPGMUjRlHXLfwID
AQABo4IBTzCCAUswCQYDVR0TBAIwADAtBglghkgBhvhCAQ0EIBYeRWFzeS1SU0Eg
R2VuZXJhdGVkIENlcnRpZmljYXRlMB0GA1UdDgQWBBR/bdYWVW7gdrqzWCD1sqo2
q5kwMjCBzQYDVR0jBIHFMIHCgBQC0UVWakhBS7eOFkEo5xw50EKm1qGBnqSBmzCB
mDELMAkGA1UEBhMCQVExDDAKBgNVBAgTA04vQTEQMA4GA1UEBxMHRGVscGhpYTEN
MAsGA1UEChMEUFVDSzEUMBIGA1UECxMLQ3J5cHRvIENvcHMxFDASBgNVBAMTC3B1
Y2thc2F1cnVzMQ0wCwYDVQQpEwRQVUNLMR8wHQYJKoZIhvcNAQkBFhBwdWNrQGV4
YW1wbGUuY29tggkAzN+7GIMwMBowEwYDVR0lBAwwCgYIKwYBBQUHAwIwCwYDVR0P
BAQDAgeAMA0GCSqGSIb3DQEBCwUAA0EAjApUgq1GbrYsfVakv3zBEZu+OAnsObGP
PFniQp1Q363ymat8pTPfaqHQcZwPO3rSSj9jBI8sfgTByOqNUK/VxA==
-----END CERTIFICATE-----