Certificate:
    Data:
        Version: 3 (0x2)
        Serial Number:
            e0:47:da:9a:b2:db:09:d6:ed:ee:da:40:73:4a:bd:8b
        Signature Algorithm: sha256WithRSAEncryption
        Issuer: C=AQ, ST=White, L=D3cktown, O=D3ckasaurusRex, CN=*
        Validity
            Not Before: Jul 17 19:15:07 2014 GMT
            Not After : Jul 17 19:15:07 2015 GMT
        Subject: C=AQ, ST=White, L=D3cktown, O=D3ckasaurusRex, CN=*
        Subject Public Key Info:
            Public Key Algorithm: rsaEncryption
            RSA Public Key: (1024 bit)
                Modulus (1024 bit):
                    00:c4:20:98:05:46:78:f1:1c:46:81:e9:dc:73:e3:
                    ed:39:28:80:df:dd:47:03:15:c3:92:2b:67:23:11:
                    af:cd:6c:18:43:ac:0f:c3:3e:fa:8b:cf:58:98:8b:
                    45:2f:6d:55:76:2d:63:78:a8:0c:46:b9:ae:6f:b0:
                    62:2b:f3:89:51:92:b2:42:3d:79:5d:23:86:f8:9f:
                    73:e5:aa:7a:72:26:22:35:f3:13:ca:71:25:29:aa:
                    8e:00:99:7c:9d:0e:a3:3c:15:97:6d:fa:9d:93:d7:
                    09:7c:be:ab:f6:aa:35:37:f2:26:8d:cf:f0:95:ce:
                    fc:92:68:b5:b3:d5:ea:58:0d
                Exponent: 65537 (0x10001)
        X509v3 extensions:
            X509v3 Basic Constraints: 
                CA:FALSE
            Netscape Comment: 
                d3ck certz with retsin
            X509v3 Subject Key Identifier: 
                5B:F9:8E:69:61:5C:BB:57:C1:F6:1A:8C:BC:00:12:CA:02:ED:C0:3F
            X509v3 Authority Key Identifier: 
                keyid:BA:0A:31:79:CB:15:1A:44:2F:3F:46:40:64:30:70:31:BC:CE:38:49
                DirName:/C=AQ/ST=White/L=D3cktown/O=D3ckasaurusRex/CN=*
                serial:BA:3D:23:26:E4:FE:30:5A

    Signature Algorithm: sha256WithRSAEncryption
        07:36:29:c6:bc:d4:2f:fa:a3:c9:c6:6b:1d:1c:82:b1:97:8c:
        91:7a:b6:b6:55:5f:01:d6:5c:e9:19:60:cf:39:2b:b3:90:04:
        08:f1:71:54:a7:e6:05:fc:e7:bc:4f:7e:2a:60:03:c0:b5:ca:
        02:7f:9f:60:01:96:dd:ee:24:04:75:d4:b9:6a:39:24:c9:01:
        86:77:64:a9:6f:00:ef:35:d1:87:15:9e:96:6a:63:09:d3:d9:
        4f:ac:04:91:b3:da:25:c0:b3:0a:53:bb:fb:7d:fa:fc:a5:d0:
        6c:7e:de:56:b2:6f:b0:7d:e0:d8:1d:f6:f8:59:7e:44:f7:25:
        3d:f4
-----BEGIN CERTIFICATE-----
MIIDDTCCAnagAwIBAgIRAOBH2pqy2wnW7e7aQHNKvYswDQYJKoZIhvcNAQELBQAw
VTELMAkGA1UEBhMCQVExDjAMBgNVBAgTBVdoaXRlMREwDwYDVQQHEwhEM2NrdG93
bjEXMBUGA1UEChMORDNja2FzYXVydXNSZXgxCjAIBgNVBAMUASowHhcNMTQwNzE3
MTkxNTA3WhcNMTUwNzE3MTkxNTA3WjBVMQswCQYDVQQGEwJBUTEOMAwGA1UECBMF
V2hpdGUxETAPBgNVBAcTCEQzY2t0b3duMRcwFQYDVQQKEw5EM2NrYXNhdXJ1c1Jl
eDEKMAgGA1UEAxQBKjCBnzANBgkqhkiG9w0BAQEFAAOBjQAwgYkCgYEAxCCYBUZ4
8RxGgencc+PtOSiA391HAxXDkitnIxGvzWwYQ6wPwz76i89YmItFL21Vdi1jeKgM
Rrmub7BiK/OJUZKyQj15XSOG+J9z5ap6ciYiNfMTynElKaqOAJl8nQ6jPBWXbfqd
k9cJfL6r9qo1N/Imjc/wlc78kmi1s9XqWA0CAwEAAaOB3DCB2TAJBgNVHRMEAjAA
MCUGCWCGSAGG+EIBDQQYFhZkM2NrIGNlcnR6IHdpdGggcmV0c2luMB0GA1UdDgQW
BBRb+Y5pYVy7V8H2Goy8ABLKAu3APzCBhQYDVR0jBH4wfIAUugoxecsVGkQvP0ZA
ZDBwMbzOOEmhWaRXMFUxCzAJBgNVBAYTAkFRMQ4wDAYDVQQIEwVXaGl0ZTERMA8G
A1UEBxMIRDNja3Rvd24xFzAVBgNVBAoTDkQzY2thc2F1cnVzUmV4MQowCAYDVQQD
FAEqggkAuj0jJuT+MFowDQYJKoZIhvcNAQELBQADgYEABzYpxrzUL/qjycZrHRyC
sZeMkXq2tlVfAdZc6Rlgzzkrs5AECPFxVKfmBfznvE9+KmADwLXKAn+fYAGW3e4k
BHXUuWo5JMkBhndkqW8A7zXRhxWelmpjCdPZT6wEkbPaJcCzClO7+336/KXQbH7e
VrJvsH3g2B32+Fl+RPclPfQ=
-----END CERTIFICATE-----
