Certificate:
    Data:
        Version: 3 (0x2)
        Serial Number: 4 (0x4)
        Signature Algorithm: sha256WithRSAEncryption
        Issuer: C=AQ, ST=N/A, L=Delphia, O=PUCK, OU=Crypto Cops, CN=CommonName/name=PUCK/emailAddress=puck@fish2.com
        Validity
            Not Before: Mar  6 22:24:03 2013 GMT
            Not After : Mar  4 22:24:03 2023 GMT
        Subject: C=AQ, ST=N/A, L=Delphia, O=PUCK, OU=Crypto Cops, CN=puck003/name=PUCK/emailAddress=puck@fish2.com
        Subject Public Key Info:
            Public Key Algorithm: rsaEncryption
            RSA Public Key: (2048 bit)
                Modulus (2048 bit):
                    00:b4:8e:c9:b8:ae:6c:bb:f0:b5:36:fd:19:e0:25:
                    4d:98:07:ff:17:77:e5:60:3a:8e:24:c8:dc:7f:7f:
                    fd:03:cb:b1:ca:0b:5b:64:db:23:56:87:43:7c:08:
                    03:29:78:20:ac:3a:18:17:bf:a4:3e:fe:e8:72:bb:
                    a2:75:ad:a2:33:6d:c2:70:84:a1:ad:7f:d8:35:9b:
                    54:2c:91:8e:2c:f7:af:5a:0e:16:ee:5d:84:7a:3d:
                    d3:ec:5d:75:10:6d:af:a5:4e:41:7b:fa:50:85:03:
                    a3:0b:a3:9e:88:96:97:c7:f6:78:ef:83:f8:20:61:
                    9e:3f:f5:2c:3e:6a:36:57:cc:70:31:d1:d7:0a:89:
                    5c:d7:b9:98:c1:65:7d:35:7b:92:3d:04:9e:1e:28:
                    6a:d9:4e:6a:eb:9d:53:12:e3:21:dd:e9:dd:d9:73:
                    2c:f4:87:f8:81:4b:75:85:c7:19:df:ce:38:a2:85:
                    cd:3a:06:95:c9:72:6e:f8:18:a7:0f:84:87:3f:46:
                    3c:94:60:47:1a:10:a6:04:2e:58:67:08:9c:44:b4:
                    fd:4d:1f:9d:48:b9:fe:ed:2d:c2:3c:5b:e5:02:e9:
                    4b:a2:75:cb:21:8b:b1:e9:35:36:07:d0:21:f0:f7:
                    80:c3:01:f3:f6:ed:91:e9:c7:32:ab:0e:91:38:87:
                    7d:cb
                Exponent: 65537 (0x10001)
        X509v3 extensions:
            X509v3 Basic Constraints: 
                CA:FALSE
            Netscape Comment: 
                Easy-RSA Generated Certificate
            X509v3 Subject Key Identifier: 
                F4:25:4F:2C:AA:4B:33:76:40:9D:C4:E9:09:BD:DF:69:AC:6E:8F:B6
            X509v3 Authority Key Identifier: 
                keyid:A6:D1:CA:56:85:9F:CD:FA:BD:A3:90:F2:B3:BC:90:4B:BD:B1:54:43
                DirName:/C=AQ/ST=N/A/L=Delphia/O=PUCK/OU=Crypto Cops/CN=CommonName/name=PUCK/emailAddress=puck@fish2.com
                serial:B8:68:25:7F:84:03:B2:B8

            X509v3 Extended Key Usage: 
                TLS Web Client Authentication
            X509v3 Key Usage: 
                Digital Signature
    Signature Algorithm: sha256WithRSAEncryption
        3d:7d:18:bc:50:ff:80:e6:6d:83:f9:8e:8c:e7:7a:5f:8c:9b:
        23:aa:d2:1d:18:7c:99:fd:f9:78:a9:7e:cc:a4:8a:ec:5b:99:
        24:61:1c:f1:73:e3:16:e3:9d:30:1c:00:26:0a:88:94:66:03:
        78:c9:58:3f:d4:9e:87:a5:a4:de:d8:04:9b:1d:7a:25:0e:da:
        10:e1:66:2a:0a:ab:14:e0:25:a1:bb:df:5c:72:76:97:f2:6d:
        81:4c:a1:b2:3d:46:75:97:af:25:31:5a:2f:2f:63:7e:68:2a:
        c4:5d:bc:94:3f:20:a7:a8:ff:e8:37:02:ef:59:e6:a8:49:72:
        fb:37:d4:93:27:08:71:15:f4:4f:8e:48:74:49:94:d0:4f:eb:
        63:36:2b:b7:3c:46:da:26:a4:6e:87:c2:4f:e6:92:2d:d5:74:
        dd:37:af:ba:02:87:44:9f:74:b6:80:be:17:90:eb:20:7b:75:
        56:42:fb:00:b9:3a:36:e5:fa:6d:bb:a1:f2:af:72:1b:a4:59:
        13:e4:ce:5e:76:dc:84:01:3b:a6:ee:9b:62:f9:b9:ad:2d:18:
        7d:c0:00:1d:cf:e1:d7:97:bd:13:32:d0:d8:07:d8:bf:64:9f:
        d2:dc:23:a6:09:cd:06:37:df:6a:ef:5a:91:83:4d:01:5f:32:
        4e:03:c9:52
-----BEGIN CERTIFICATE-----
MIIE8jCCA9qgAwIBAgIBBDANBgkqhkiG9w0BAQsFADCBlTELMAkGA1UEBhMCQVEx
DDAKBgNVBAgTA04vQTEQMA4GA1UEBxMHRGVscGhpYTENMAsGA1UEChMEUFVDSzEU
MBIGA1UECxMLQ3J5cHRvIENvcHMxEzARBgNVBAMTCkNvbW1vbk5hbWUxDTALBgNV
BCkTBFBVQ0sxHTAbBgkqhkiG9w0BCQEWDnB1Y2tAZmlzaDIuY29tMB4XDTEzMDMw
NjIyMjQwM1oXDTIzMDMwNDIyMjQwM1owgZIxCzAJBgNVBAYTAkFRMQwwCgYDVQQI
EwNOL0ExEDAOBgNVBAcTB0RlbHBoaWExDTALBgNVBAoTBFBVQ0sxFDASBgNVBAsT
C0NyeXB0byBDb3BzMRAwDgYDVQQDEwdwdWNrMDAzMQ0wCwYDVQQpEwRQVUNLMR0w
GwYJKoZIhvcNAQkBFg5wdWNrQGZpc2gyLmNvbTCCASIwDQYJKoZIhvcNAQEBBQAD
ggEPADCCAQoCggEBALSOybiubLvwtTb9GeAlTZgH/xd35WA6jiTI3H9//QPLscoL
W2TbI1aHQ3wIAyl4IKw6GBe/pD7+6HK7onWtojNtwnCEoa1/2DWbVCyRjiz3r1oO
Fu5dhHo90+xddRBtr6VOQXv6UIUDowujnoiWl8f2eO+D+CBhnj/1LD5qNlfMcDHR
1wqJXNe5mMFlfTV7kj0Enh4oatlOauudUxLjId3p3dlzLPSH+IFLdYXHGd/OOKKF
zToGlclybvgYpw+Ehz9GPJRgRxoQpgQuWGcInES0/U0fnUi5/u0twjxb5QLpS6J1
yyGLsek1NgfQIfD3gMMB8/btkenHMqsOkTiHfcsCAwEAAaOCAUwwggFIMAkGA1Ud
EwQCMAAwLQYJYIZIAYb4QgENBCAWHkVhc3ktUlNBIEdlbmVyYXRlZCBDZXJ0aWZp
Y2F0ZTAdBgNVHQ4EFgQU9CVPLKpLM3ZAncTpCb3faaxuj7YwgcoGA1UdIwSBwjCB
v4AUptHKVoWfzfq9o5Dys7yQS72xVEOhgZukgZgwgZUxCzAJBgNVBAYTAkFRMQww
CgYDVQQIEwNOL0ExEDAOBgNVBAcTB0RlbHBoaWExDTALBgNVBAoTBFBVQ0sxFDAS
BgNVBAsTC0NyeXB0byBDb3BzMRMwEQYDVQQDEwpDb21tb25OYW1lMQ0wCwYDVQQp
EwRQVUNLMR0wGwYJKoZIhvcNAQkBFg5wdWNrQGZpc2gyLmNvbYIJALhoJX+EA7K4
MBMGA1UdJQQMMAoGCCsGAQUFBwMCMAsGA1UdDwQEAwIHgDANBgkqhkiG9w0BAQsF
AAOCAQEAPX0YvFD/gOZtg/mOjOd6X4ybI6rSHRh8mf35eKl+zKSK7FuZJGEc8XPj
FuOdMBwAJgqIlGYDeMlYP9Seh6Wk3tgEmx16JQ7aEOFmKgqrFOAlobvfXHJ2l/Jt
gUyhsj1GdZevJTFaLy9jfmgqxF28lD8gp6j/6DcC71nmqEly+zfUkycIcRX0T45I
dEmU0E/rYzYrtzxG2iakbofCT+aSLdV03TevugKHRJ90toC+F5DrIHt1VkL7ALk6
NuX6bbuh8q9yG6RZE+TOXnbchAE7pu6bYvm5rS0YfcAAHc/h15e9EzLQ2AfYv2Sf
0twjpgnNBjffau9akYNNAV8yTgPJUg==
-----END CERTIFICATE-----
